(lp0
(lp1
(lp2
I1
aI1
aI1
aI1
aI0
aI1
aI0
aI1
aI1
aI1
aI0
aI0
aI1
aI1
aa(lp3
I1
aI0
aI0
aI1
aI1
aI0
aI1
aI1
aI1
aI0
aI1
aI0
aI1
aI1
aa(lp4
I0
aI0
aI1
aI0
aI1
aI0
aI1
aI0
aI1
aI1
aI0
aI1
aI1
aI1
aa(lp5
I0
aI1
aI1
aI1
aI1
aI1
aI0
aI1
aI1
aI0
aI1
aI1
aI0
aI1
aa(lp6
I1
aI0
aI0
aI0
aI1
aI1
aI1
aI0
aI1
aI1
aI1
aI1
aI1
aI1
aa(lp7
I0
aI1
aI1
aI1
aI1
aI1
aI0
aI1
aI1
aI1
aI1
aI0
aI1
aI0
aa(lp8
I1
aI1
aI1
aI1
aI1
aI1
aI1
aI1
aI1
aI1
aI0
aI0
aI1
aI1
aa(lp9
I1
aI0
aI0
aI0
aI0
aI1
aI0
aI0
aI1
aI1
aI1
aI1
aI1
aI1
aa(lp10
I1
aI1
aI1
aI1
aI0
aI0
aI1
aI0
aI1
aI1
aI0
aI1
aI1
aI1
aa(lp11
I0
aI0
aI0
aI0
aI1
aI0
aI0
aI1
aI1
aI1
aI1
aI1
aI0
aI1
aa(lp12
I0
aI1
aI1
aI1
aI0
aI1
aI1
aI0
aI1
aI1
aI1
aI1
aI1
aI1
aa(lp13
I1
aI1
aI0
aI1
aI1
aI0
aI1
aI1
aI1
aI0
aI1
aI0
aI0
aI0
aa(lp14
I1
aI1
aI0
aI1
aI0
aI1
aI1
aI1
aI1
aI1
aI1
aI0
aI1
aI1
aa(lp15
I0
aI0
aI1
aI1
aI0
aI0
aI0
aI1
aI1
aI1
aI0
aI1
aI1
aI1
aaa(lp16
(lp17
(lp18
F9913.695719292038
aF445.4902476597609
aF7749.365893399545
aF4804.492130454009
aF0.0
aF10711.419869083631
aF0.0
aF7615.194419097226
aF7779.484709954327
aF6265.421543542687
aF0.0
aF0.0
aF9231.637910753989
aF8170.198788186668
aa(lp19
F445.4902476597609
aF0.0
aF0.0
aF215.89873743151122
aF167.79854293013392
aF0.0
aF216.14259196968945
aF342.2028417857391
aF349.5855297796419
aF0.0
aF115.49804540219043
aF0.0
aF414.84071890202443
aF367.1429893188894
aa(lp20
F0.0
aF0.0
aF6057.546393412268
aF0.0
aF2918.8793971939785
aF0.0
aF3759.8309707559024
aF0.0
aF6081.089755682806
aF4897.572549338615
aF0.0
aF3322.0995676266075
aF7216.213003854428
aF6386.50424868895
aa(lp21
F0.0
aF215.89873743151122
aF3755.589086559702
aF2328.4096350339596
aF1809.6620144762305
aF5191.0946153868945
aF0.0
aF3690.565324415938
aF3770.185622625907
aF0.0
aF1245.6152589931683
aF2059.652550777264
aF0.0
aF3959.5380868610036
aa(lp22
F3734.0967742584476
aF0.0
aF0.0
aF0.0
aF1406.4864521102206
aF4034.56788602438
aF1811.7060018568363
aF0.0
aF2930.22396322931
aF2359.9362979826124
aF968.1039731735315
aF1600.7814639138132
aF3477.1925949458314
aF3077.390491282578
aa(lp23
F0.0
aF481.33745732984
aF8372.933177869072
aF5191.0946153868945
aF4034.56788602438
aF11573.334391182327
aF0.0
aF8227.965343834245
aF8405.475561578745
aF6769.580458182587
aF2777.048577068305
aF0.0
aF9974.478997676712
aF0.0
aa(lp24
F4809.918735646754
aF216.14259196968945
aF3759.8309707559024
aF2331.0395404377423
aF1811.7060018568363
aF5196.957882560824
aF2333.67241628209
aF3694.733765202154
aF3774.443993400972
aF3039.852071550454
aF0.0
aF0.0
aF4478.998489053225
aF3964.0103285380865
aa(lp25
F7615.194419097226
aF0.0
aF0.0
aF0.0
aF0.0
aF8227.965343834245
aF0.0
aF0.0
aF5975.802589079972
aF4812.776639778193
aF1974.3194724997427
aF3264.581184458353
aF7091.272466663977
aF6275.929176809267
aa(lp26
F7779.484709954327
aF349.5855297796419
aF6081.089755682806
aF3770.185622625907
aF0.0
aF0.0
aF3774.443993400972
aF0.0
aF6104.72462198336
aF4916.607537646872
aF0.0
aF3335.011295996446
aF7244.259659370907
aF6411.32614412383
aa(lp27
F0.0
aF0.0
aF0.0
aF0.0
aF2359.9362979826124
aF0.0
aF0.0
aF4812.776639778193
aF4916.607537646872
aF3959.724832173097
aF1624.3766181221363
aF2685.942887085773
aF0.0
aF5163.537489144027
aa(lp28
F0.0
aF115.49804540219043
aF2009.1048423525147
aF1245.6152589931683
aF0.0
aF2777.048577068305
aF1247.0221636251417
aF0.0
aF2016.9134632149878
aF1624.3766181221363
aF666.3592823579727
aF1101.8399025972694
aF2393.399496743136
aF2118.2102089552427
aa(lp29
F4249.9327965264
aF190.97858837623184
aF0.0
aF2059.652550777264
aF1600.7814639138132
aF0.0
aF2061.978898895611
aF3264.581184458353
aF3335.011295996446
aF0.0
aF1101.8399025972694
aF0.0
aF0.0
aF0.0
aa(lp30
F9231.637910753989
aF414.84071890202443
aF0.0
aF4473.945231858075
aF0.0
aF9974.478997676712
aF4478.998489053225
aF7091.272466663977
aF7244.259659370907
aF5834.363358123518
aF2393.399496743136
aF0.0
aF8596.505372807253
aF7608.092784676124
aa(lp31
F0.0
aF0.0
aF6386.50424868895
aF3959.5380868610036
aF0.0
aF0.0
aF0.0
aF6275.929176809267
aF6411.32614412383
aF5163.537489144027
aF0.0
aF3502.5077193446896
aF7608.092784676124
aF6733.326312263882
aaa(lp32
(lp33
F9589.926166560312
aF430.9410641549189
aF7496.280787672734
aF4647.583111635417
aF0.0
aF10361.597591062111
aF0.0
aF7366.491194704506
aF7525.415959374893
aF6060.80030154905
aF0.0
aF0.0
aF8930.143557691525
aF7903.369778876567
aa(lp34
F430.9410641549189
aF0.0
aF0.0
aF208.84774054469773
aF162.31844138860663
aF0.0
aF209.08363108266923
aF331.0269025431328
aF338.168480696929
aF0.0
aF111.72601612470457
aF0.0
aF401.29251268136716
aF355.15253441627976
aa(lp35
F0.0
aF0.0
aF5859.714107453543
aF0.0
aF2823.5522554633435
aF0.0
aF3637.039347307179
aF0.0
aF5882.48857141532
aF4737.623634355799
aF0.0
aF3213.6037330159465
aF6980.540039620899
aF6177.928589049383
aa(lp36
F0.0
aF208.84774054469773
aF3632.935998021453
aF2252.366535925707
aF1750.5605978488898
aF5021.55961760184
aF0.0
aF3570.0358348847935
aF3647.05582851918
aF0.0
aF1204.934940906017
aF1992.3867395167651
aF0.0
aF3830.2242656880894
aa(lp37
F3612.145599167815
aF0.0
aF0.0
aF0.0
aF1360.5522715163183
aF3902.8036805342017
aF1752.5378310241272
aF0.0
aF2834.5263214172523
aF2282.8635754270567
aF936.4868447819224
aF1548.5018385079184
aF3363.6316058752413
aF2976.8865650823313
aa(lp38
F0.0
aF465.61754644237556
aF8099.483103667592
aF5021.55961760184
aF3902.8036805342017
aF11195.363006388261
aF0.0
aF7959.249747280149
aF8130.962691693716
aF6548.493983553151
aF2686.353461828689
aF0.0
aF9648.72433511174
aF0.0
aa(lp39
F4652.832490334042
aF209.08363108266923
aF3637.039347307179
aF2254.910551735899
aF1752.5378310241272
aF5027.231397418864
aF2257.4574409755883
aF3574.0681393352615
aF3651.175125951644
aF2940.5741056490774
aF0.0
aF0.0
aF4332.719706795986
aF3834.5504492523855
aa(lp40
F7366.491194704506
aF0.0
aF0.0
aF0.0
aF0.0
aF7959.249747280149
aF0.0
aF0.0
aF5780.639958890059
aF4655.597058703664
aF1909.840538441191
aF3157.963832072641
aF6859.679912298736
aF6070.964767966524
aa(lp41
F7525.415959374893
aF338.168480696929
aF5882.48857141532
aF3647.05582851918
aF0.0
aF0.0
aF3651.175125951644
aF0.0
aF5905.351550993942
aF4756.036962505693
aF0.0
aF3226.0937796398784
aF7007.670724608392
aF6201.93983079764
aa(lp42
F0.0
aF0.0
aF0.0
aF0.0
aF2282.8635754270567
aF0.0
aF0.0
aF4655.597058703664
aF4756.036962505693
aF3830.404912119616
aF1571.3264029441748
aF2598.2231757048366
aF0.0
aF4994.9024744420585
aa(lp43
F0.0
aF111.72601612470457
aF1943.4898593413081
aF1204.934940906017
aF0.0
aF2686.353461828689
aF1206.2958977001376
aF0.0
aF1951.043459900992
aF1571.3264029441748
aF644.5967779482568
aF1065.8551172511077
aF2315.233905775795
aF2049.0319739797005
aa(lp44
F4111.1350283042475
aF184.74145402283608
aF0.0
aF1992.3867395167651
aF1548.5018385079184
aF0.0
aF1994.637111862696
aF3157.963832072641
aF3226.0937796398784
aF0.0
aF1065.8551172511077
aF0.0
aF0.0
aF0.0
aa(lp45
F8930.143557691525
aF401.29251268136716
aF0.0
aF4327.831482991838
aF0.0
aF9648.72433511174
aF4332.719706795986
aF6859.679912298736
aF7007.670724608392
aF5643.819965586459
aF2315.233905775795
aF0.0
aF8315.753695691179
aF7359.6214912469195
aa(lp46
F0.0
aF0.0
aF6177.928589049383
aF3830.2242656880894
aF0.0
aF0.0
aF0.0
aF6070.964767966524
aF6201.93983079764
aF4994.9024744420585
aF0.0
aF3388.119968314075
aF7359.6214912469195
aF6513.423855072659
aaa(lp47
(lp48
F8676.616464812565
aF389.89980398895506
aF6782.362259886778
aF4204.964193427616
aF0.0
aF9374.796708431604
aF0.0
aF6664.93335587329
aF6808.722703763559
aF5483.591716246058
aF0.0
aF0.0
aF8079.669152822861
aF7150.681575632878
aa(lp49
F389.89980398895506
aF0.0
aF0.0
aF188.95784104863267
aF146.85982317632894
aF0.0
aF189.17126622940143
aF299.50110386843994
aF305.9625440836986
aF0.0
aF101.08563655430403
aF0.0
aF363.0748727636992
aF321.32909827620455
aa(lp50
F0.0
aF0.0
aF5301.656240181661
aF0.0
aF2554.647404318764
aF0.0
aF3290.6609431525435
aF0.0
aF5322.261746997457
aF4286.429584126888
aF0.0
aF2907.551797270026
aF6315.738785586731
aF5589.565131491361
aa(lp51
F0.0
aF188.95784104863267
aF3286.9483819341317
aF2037.8593360344328
aF1583.843571070551
aF4543.324536642353
aF0.0
aF3230.038601646773
aF3299.723491111107
aF0.0
aF1090.1813179488727
aF1802.63907021986
aF0.0
aF3465.4476322745195
aa(lp52
F3268.1379850790954
aF0.0
aF0.0
aF0.0
aF1230.9782197740114
aF3531.1148475296413
aF1585.6324997468591
aF0.0
aF2564.5763401299328
aF2065.4519483725903
aF847.2992424955908
aF1401.0281533386853
aF3043.29156097862
aF2693.3787117713605
aa(lp53
F0.0
aF421.2738241775844
aF7328.117780385356
aF4543.324536642353
aF3531.1148475296413
aF10129.157336945695
aF0.0
aF7201.239739010024
aF7356.599366899066
aF5924.8392250972765
aF2430.5149249724877
aF0.0
aF8729.814909565255
aF0.0
aa(lp54
F4209.713640384292
aF189.17126622940143
aF3290.6609431525435
aF2040.1610690282096
aF1585.6324997468591
aF4548.456156770648
aF2042.4654017965051
aF3233.6868840817374
aF3303.450481632745
aF2660.524518952333
aF0.0
aF0.0
aF3920.087234507646
aF3469.361805844975
aa(lp55
F6664.93335587329
aF0.0
aF0.0
aF0.0
aF0.0
aF7201.239739010024
aF0.0
aF0.0
aF5230.11282603533
aF4212.214921313608
aF1727.9542692192547
aF2857.210838201059
aF6206.388937376279
aF5492.788155837159
aa(lp56
F6808.722703763559
aF305.9625440836986
aF5322.261746997457
aF3299.723491111107
aF0.0
aF0.0
aF3303.450481632745
aF0.0
aF5342.947339524567
aF4303.089293849623
aF0.0
aF2918.8523372638965
aF6340.285642775785
aF5611.289629873839
aa(lp57
F0.0
aF0.0
aF0.0
aF0.0
aF2065.4519483725903
aF0.0
aF0.0
aF4212.214921313608
aF4303.089293849623
aF3465.611074596688
aF1421.6789892419226
aF2350.777846881392
aF0.0
aF4519.206122879009
aa(lp58
F0.0
aF101.08563655430403
aF1758.398951136596
aF1090.1813179488727
aF0.0
aF2430.5149249724877
aF1091.412662165989
aF0.0
aF1765.2331742418069
aF1421.6789892419226
aF583.2077243945066
aF964.3469510425585
aF2094.739446148605
aF1853.8896184991654
aa(lp59
F3719.605475174016
aF167.14734961123145
aF0.0
aF1802.63907021986
aF1401.0281533386853
aF0.0
aF1804.6751252853044
aF2857.210838201059
aF2918.8523372638965
aF0.0
aF964.3469510425585
aF0.0
aF0.0
aF0.0
aa(lp60
F8079.669152822861
aF363.0748727636992
aF0.0
aF3915.6645473663566
aF0.0
aF8729.814909565255
aF3920.087234507646
aF6206.388937376279
aF6340.285642775785
aF5106.323071453793
aF2094.739446148605
aF0.0
aF7523.791547525491
aF6658.717897996637
aa(lp61
F0.0
aF0.0
aF5589.565131491361
aF3465.4476322745195
aF0.0
aF0.0
aF0.0
aF5492.788155837159
aF5611.289629873839
aF4519.206122879009
aF0.0
aF3065.4477408117846
aF6658.717897996637
aF5893.109048147845
aaa(lp62
(lp63
F9203.916066970123
aF413.59498659365573
aF7194.543314083461
aF4460.51034500331
aF0.0
aF9944.526463654887
aF0.0
aF7069.977962974584
aF7222.505747817152
aF5816.843248349303
aF0.0
aF0.0
aF8570.690779412671
aF7585.246312391478
aa(lp64
F413.59498659365573
aF0.0
aF0.0
aF200.44127987684044
aF155.78486056248713
aF0.0
aF200.66767543763763
aF317.70253221969176
aF324.5566502568512
aF0.0
aF107.22886256355457
aF0.0
aF385.13983745795696
aF340.8570682365951
aa(lp65
F0.0
aF0.0
aF5623.85110007447
aF0.0
aF2709.8996925134834
aF0.0
aF3490.642608032695
aF0.0
aF5645.708854882359
aF4546.926590483307
aF0.0
aF3084.250964758939
aF6699.561968560958
aF5929.256932093824
aa(lp66
F0.0
aF200.44127987684044
aF3486.7044252184237
aF2161.7051256347727
aF1680.0976913595189
aF4819.433689370235
aF0.0
aF3426.336095780472
aF3500.25590961192
aF0.0
aF1156.4343530536648
aF1912.1899381665323
aF0.0
aF3676.051519769929
aa(lp67
F3466.7508736764985
aF0.0
aF0.0
aF0.0
aF1305.7878334274228
aF3745.709495319602
aF1681.9953376889734
aF0.0
aF2720.432034493901
aF2190.974609777441
aF898.7917286839817
aF1486.172125169528
aF3228.239972131901
aF2857.0620471978223
aa(lp68
F0.0
aF446.87568416403155
aF7773.465757425898
aF4819.433689370235
aF3745.709495319602
aF10744.731467209866
aF0.0
aF7638.877021333211
aF7803.67824091983
aF6284.906467773167
aF2578.2233730954954
aF0.0
aF9260.347513765402
aF0.0
aa(lp69
F4465.548427685777
aF200.66767543763763
aF3490.642608032695
aF2164.146740677827
aF1681.9953376889734
aF4824.877170840223
aF2166.5911134901753
aF3430.2060934294623
aF3504.209398634128
aF2822.2112232181416
aF0.0
aF0.0
aF4158.3207034597
aF3680.2035674212375
aa(lp70
F7069.977962974584
aF0.0
aF0.0
aF0.0
aF0.0
aF7638.877021333211
aF0.0
aF0.0
aF5547.959814385201
aF4468.201717689628
aF1832.9663557164363
aF3030.8506601724025
aF6583.5666576069125
aF5826.598578489194
aa(lp71
F7222.505747817152
aF324.5566502568512
aF5645.708854882359
aF3500.25590961192
aF0.0
aF0.0
aF3504.209398634128
aF0.0
aF5667.651562409789
aF4564.598752277018
aF0.0
aF3096.2382667258785
aF6725.600599424981
aF5952.301682374102
aa(lp72
F0.0
aF0.0
aF0.0
aF0.0
aF2190.974609777441
aF0.0
aF0.0
aF4468.201717689628
aF4564.598752277018
aF3676.224894889267
aF1508.0779638264491
aF2493.640474087323
aF0.0
aF4793.849539506458
aa(lp73
F0.0
aF107.22886256355457
aF1865.2612368131388
aF1156.4343530536648
aF0.0
aF2578.2233730954954
aF1157.740529127005
aF0.0
aF1872.5107926853386
aF1508.0779638264491
aF618.6507109890606
aF1022.9527181280097
aF2222.041981769184
aF1966.55510996615
aa(lp74
F3945.6551680694492
aF177.30531052942177
aF0.0
aF1912.1899381665323
aF1486.172125169528
aF0.0
aF1914.3497293715575
aF3030.8506601724025
aF3096.2382667258785
aF0.0
aF1022.9527181280097
aF0.0
aF0.0
aF0.0
aa(lp75
F8570.690779412671
aF385.13983745795696
aF0.0
aF4153.629238600792
aF0.0
aF9260.347513765402
aF4158.3207034597
aF6583.5666576069125
aF6725.600599424981
aF5416.6470479698755
aF2222.041981769184
aF0.0
aF7981.031106956945
aF7063.384776235664
aa(lp76
F0.0
aF0.0
aF5929.256932093824
aF3676.051519769929
aF0.0
aF0.0
aF0.0
aF5826.598578489194
aF5952.301682374102
aF4793.849539506458
aF0.0
aF3251.742638220248
aF7063.384776235664
aF6251.2479689081965
aaa(lp77
(lp78
F11030.53547046562
aF495.6775069255835
aF8622.380369655375
aF5345.748181418914
aF0.0
aF11918.128228915904
aF0.0
aF8473.093640637018
aF8655.89225903982
aF6971.2604189552885
aF0.0
aF0.0
aF10271.639589150001
aF9090.622718878856
aa(lp79
F495.6775069255835
aF0.0
aF0.0
aF240.22107886897055
aF186.70209698704252
aF0.0
aF240.49240514417326
aF380.7541295690775
aF388.9685234833121
aF0.0
aF128.50962170435568
aF0.0
aF461.5751172932929
aF408.5039405167456
aa(lp80
F0.0
aF0.0
aF6739.966834618236
aF0.0
aF3247.7093948026422
aF0.0
aF4183.399416341967
aF0.0
aF6766.1625037180875
aF5449.314690941133
aF0.0
aF3696.354836250782
aF8029.164476629295
aF7105.98384720987
aa(lp81
F0.0
aF240.22107886897055
aF4178.679657393068
aF2590.7195254173216
aF2013.5317449161969
aF5775.903851289209
aF0.0
aF4106.330562256514
aF4194.920584428067
aF0.0
aF1385.9415989679535
aF2291.685276760343
aF0.0
aF4405.60478659707
aa(lp82
F4154.766101853938
aF0.0
aF0.0
aF0.0
aF1564.9359369120368
aF4489.0871613287245
aF2015.8060002435097
aF0.0
aF3260.33199706854
aF2625.7978638863747
aF1077.1669332566453
aF1781.1194955079945
aF3868.920061925144
aF3424.0777538197644
aa(lp83
F0.0
aF535.563128693614
aF9316.196403990372
aF5775.903851289209
aF4489.0871613287245
aF12877.142806095002
aF0.0
aF9154.897037873461
aF9352.404890509131
aF7532.215984684918
aF3089.900446807899
aF0.0
aF11098.166364858374
aF0.0
aa(lp84
F5351.7861275852765
aF240.49240514417326
aF4183.399416341967
aF2593.645706093206
aF2015.8060002435097
aF5782.4276521366555
aF2596.5751918483415
aF4110.968603936511
aF4199.658687271927
aF3382.310396611631
aF0.0
aF0.0
aF4983.585648036382
aF4410.580854236059
aa(lp85
F8473.093640637018
aF0.0
aF0.0
aF0.0
aF0.0
aF9154.897037873461
aF0.0
aF0.0
aF6649.01408009466
aF5354.965992469741
aF2196.7388941603094
aF3632.356647915567
aF7890.14860745183
aF6982.951802747925
aa(lp86
F8655.89225903982
aF388.9685234833121
aF6766.1625037180875
aF4194.920584428067
aF0.0
aF0.0
aF4199.658687271927
aF0.0
aF6792.45998534854
aF5470.49408958916
aF0.0
aF3710.7211514778433
aF8060.370763090196
aF7133.602084221706
aa(lp87
F0.0
aF0.0
aF0.0
aF0.0
aF2625.7978638863747
aF0.0
aF0.0
aF5354.965992469741
aF5470.49408958916
aF4405.812569935123
aF1807.3727912309541
aF2988.5311317342125
aF0.0
aF5745.242242632558
aa(lp88
F0.0
aF128.50962170435568
aF2235.443053222564
aF1385.9415989679535
aF0.0
aF3089.900446807899
aF1387.5070001953027
aF0.0
aF2244.13136400371
aF1807.3727912309541
aF741.4288180965611
aF1225.9690505451083
aF2663.030901023564
aF2356.839820927221
aa(lp89
F4728.714274329912
aF212.4935193526311
aF0.0
aF2291.685276760343
aF1781.1194955079945
aF0.0
aF2294.2737025263414
aF3632.356647915567
aF3710.7211514778433
aF0.0
aF1225.9690505451083
aF0.0
aF0.0
aF0.0
aa(lp90
F10271.639589150001
aF461.5751172932929
aF0.0
aF4977.963109851756
aF0.0
aF11098.166364858374
aF4983.585648036382
aF7890.14860745183
aF8060.370763090196
aF6491.640836235209
aF2663.030901023564
aF0.0
aF9564.95540328832
aF8465.191962736231
aa(lp91
F0.0
aF0.0
aF7105.98384720987
aF4405.60478659707
aF0.0
aF0.0
aF0.0
aF6982.951802747925
aF7133.602084221706
aF5745.242242632558
aF0.0
aF3897.0870932248295
aF8465.191962736231
aF7491.877582757825
aaa(lp92
(lp93
F12085.13467478074
aF543.0678721349849
aF9446.742478048742
aF5856.840484570304
aF0.0
aF13057.587739362474
aF0.0
aF9283.182854839608
aF9483.458347147007
aF7637.763483161781
aF0.0
aF0.0
aF11253.682842329625
aF9959.752192396058
aa(lp94
F543.0678721349849
aF0.0
aF0.0
aF263.1879565253861
aF204.55217175935888
aF0.0
aF263.4852235606457
aF417.15698627158133
aF426.1567358296174
aF0.0
aF140.79607372285682
aF0.0
aF505.70504668180854
aF447.5598804375268
aa(lp95
F0.0
aF0.0
aF7384.3565544038565
aF0.0
aF3558.213971192081
aF0.0
aF4583.362746102272
aF0.0
aF7413.056719487894
aF5970.308703653975
aF0.0
aF4049.753171228609
aF8796.810842577752
aF7785.367448414797
aa(lp96
F0.0
aF263.1879565253861
aF4578.191743961652
aF2838.4111046180024
aF2206.0399854941334
aF6328.122156744974
aF0.0
aF4498.9255505239125
aF4595.985421429694
aF0.0
aF1518.447669177538
aF2510.787012653688
aF0.0
aF4826.812561587891
aa(lp97
F4551.991879048746
aF0.0
aF0.0
aF0.0
aF1714.55516421886
aF4918.276456908648
aF2208.531676127739
aF0.0
aF3572.0433857964777
aF2876.843186696077
aF1180.1519056334273
aF1951.4074391696806
aF4238.816884231707
aF3751.444424672689
aa(lp98
F0.0
aF586.7668486665085
aF10206.892358071456
aF6328.122156744974
aF4918.276456908648
aF14108.291066623347
aF0.0
aF10030.171602519837
aF10246.562638550662
aF8252.350470036701
aF3385.3173430539146
aF0.0
aF12159.23157325867
aF0.0
aa(lp99
F5863.455702188247
aF263.4852235606457
aF4583.362746102272
aF2841.6170493924415
aF2208.531676127739
aF6335.269680275807
aF2844.8266152356823
aF4504.007022631961
aF4601.176521274695
aF3705.6838051432487
aF0.0
aF0.0
aF5460.052585940492
aF4832.264377388585
aa(lp100
F9283.182854839608
aF0.0
aF0.0
aF0.0
aF0.0
aF10030.171602519837
aF0.0
aF0.0
aF7284.708056794402
aF5866.939585221782
aF2406.7630671546735
aF3979.6362918582554
aF8644.504047913098
aF7650.572648051996
aa(lp101
F9483.458347147007
aF426.1567358296174
aF7413.056719487894
aF4595.985421429694
aF0.0
aF0.0
aF4601.176521274695
aF0.0
aF7441.868431118986
aF5993.513006443952
aF0.0
aF4065.4930104018076
aF8831.00067638859
aF7815.626189222234
aa(lp102
F0.0
aF0.0
aF0.0
aF0.0
aF2876.843186696077
aF0.0
aF0.0
aF5866.939585221782
aF5993.513006443952
aF4827.040210520281
aF1980.1707404000078
aF3274.256386146075
aF0.0
aF6294.529075887458
aa(lp103
F0.0
aF140.79607372285682
aF2449.16762457565
aF1518.447669177538
aF0.0
aF3385.3173430539146
aF1520.1627341173346
aF0.0
aF2458.686600890774
aF1980.1707404000078
aF812.3147912856693
aF1343.180584716011
aF2917.635972264723
aF2582.1708038611905
aa(lp104
F5180.813660120779
aF232.80944118901178
aF0.0
aF2510.787012653688
aF1951.4074391696806
aF0.0
aF2513.622910698848
aF3979.6362918582554
aF4065.4930104018076
aF0.0
aF1343.180584716011
aF0.0
aF0.0
aF0.0
aa(lp105
F11253.682842329625
aF505.70504668180854
aF0.0
aF5453.892492320627
aF0.0
aF12159.23157325867
aF5460.052585940492
aF8644.504047913098
aF8831.00067638859
aF7112.288789267375
aF2917.635972264723
aF0.0
aF10479.43452215123
aF9274.525719214287
aa(lp106
F0.0
aF0.0
aF7785.367448414797
aF4826.812561587891
aF0.0
aF0.0
aF0.0
aF7650.572648051996
aF7815.626189222234
aF6294.529075887458
aF0.0
aF4269.676888041757
aF9274.525719214287
aF8208.15542427853
aaa(lp107
(lp108
F12223.975293982507
aF549.3069320763815
aF9555.27180853514
aF5924.1270627778795
aF0.0
aF13207.600429812477
aF0.0
aF9389.83312315799
aF9592.409489564949
aF7725.510276214218
aF0.0
aF0.0
aF11382.971289349573
aF10074.175258311416
aa(lp109
F549.3069320763815
aF0.0
aF0.0
aF266.21160333063733
aF206.9021786852561
aF0.0
aF266.5122855317478
aF421.949513275782
aF431.0526568658189
aF0.0
aF142.41361581758017
aF0.0
aF511.51486210416203
aF452.7016924737209
aa(lp110
F0.0
aF0.0
aF7469.192070433275
aF0.0
aF3599.0926741860667
aF0.0
aF4636.018917408586
aF0.0
aF7498.221958668829
aF6038.8988666557
aF0.0
aF4096.278944671667
aF8897.873403918753
aF7874.809996333345
aa(lp111
F0.0
aF266.21160333063733
aF4630.788507974758
aF2871.0203196511384
aF2231.384176172374
aF6400.8230758717045
aF0.0
aF4550.61166126961
aF4648.7866089154395
aF0.0
aF1535.8924242661205
aF2539.632303409781
aF0.0
aF4882.265617168662
aa(lp112
F4604.287644722537
aF0.0
aF0.0
aF0.0
aF1734.2529091808995
aF4974.780299609519
aF2233.9044927071163
aF0.0
aF3613.080968648946
aF2909.8939304516084
aF1193.7101344607995
aF1973.8262722617633
aF4287.514724738007
aF3794.543064517347
aa(lp113
F0.0
aF593.5079462867056
aF10324.15470501722
aF6400.8230758717045
aF4974.780299609519
aF14270.374810022282
aF0.0
aF10145.403685030253
aF10364.28073931745
aF8347.157973632076
aF3424.209715274219
aF0.0
aF12298.923458047659
aF0.0
aa(lp114
F5930.818279624209
aF266.5122855317478
aF4636.018917408586
aF2874.2630960678875
aF2233.9044927071163
aF6408.052714051608
aF2877.509535154252
aF4555.751512101018
aF4654.0373469470405
aF3748.2567220297856
aF0.0
aF0.0
aF5522.780648333386
aF4887.780066403067
aa(lp115
F9389.83312315799
aF0.0
aF0.0
aF0.0
aF0.0
aF10145.403685030253
aF0.0
aF0.0
aF7368.398756528187
aF5934.342187406381
aF2434.4132740831087
aF4025.3565243445714
aF8743.816825718464
aF7738.466599777686
aa(lp116
F9592.409489564949
aF431.0526568658189
aF7498.221958668829
aF4648.7866089154395
aF0.0
aF0.0
aF4654.0373469470405
aF0.0
aF7527.364674959014
aF6062.369753133339
aF0.0
aF4112.199611702871
aF8932.456029189882
aF7905.416366060361
aa(lp117
F0.0
aF0.0
aF0.0
aF0.0
aF2909.8939304516084
aF0.0
aF0.0
aF5934.342187406381
aF6062.369753133339
aF4882.495881456163
aF2002.9200219860934
aF3311.872829513191
aF0.0
aF6366.8440593773375
aa(lp118
F0.0
aF142.41361581758017
aF2477.304998190079
aF1535.8924242661205
aF0.0
aF3424.209715274219
aF1537.6271928074593
aF0.0
aF2486.9333336974114
aF2002.9200219860934
aF821.6471066999286
aF1358.6117759356607
aF2951.155365792038
aF2611.83619054827
aa(lp119
F5240.333673417874
aF235.48408303956163
aF0.0
aF2539.632303409781
aF1973.8262722617633
aF0.0
aF2542.500781798576
aF4025.3565243445714
aF4112.199611702871
aF0.0
aF1358.6117759356607
aF0.0
aF0.0
aF0.0
aa(lp120
F11382.971289349573
aF511.51486210416203
aF0.0
aF5516.54978419788
aF0.0
aF12298.923458047659
aF5522.780648333386
aF8743.816825718464
aF8932.456029189882
aF7193.998642406565
aF2951.155365792038
aF0.0
aF10599.827982141052
aF9381.076529636412
aa(lp121
F0.0
aF0.0
aF7874.809996333345
aF4882.265617168662
aF0.0
aF0.0
aF0.0
aF7738.466599777686
aF7905.416366060361
aF6366.8440593773375
aF0.0
aF4318.729265104981
aF9381.076529636412
aF8302.455191081239
aaa(lp122
(lp123
F12085.13467478074
aF543.0678721349849
aF9446.742478048742
aF5856.840484570304
aF0.0
aF13057.587739362474
aF0.0
aF9283.182854839608
aF9483.458347147007
aF7637.763483161781
aF0.0
aF0.0
aF11253.682842329625
aF9959.752192396058
aa(lp124
F543.0678721349849
aF0.0
aF0.0
aF263.1879565253861
aF204.55217175935888
aF0.0
aF263.4852235606457
aF417.15698627158133
aF426.1567358296174
aF0.0
aF140.79607372285682
aF0.0
aF505.70504668180854
aF447.5598804375268
aa(lp125
F0.0
aF0.0
aF7384.3565544038565
aF0.0
aF3558.213971192081
aF0.0
aF4583.362746102272
aF0.0
aF7413.056719487894
aF5970.308703653975
aF0.0
aF4049.753171228609
aF8796.810842577752
aF7785.367448414797
aa(lp126
F0.0
aF263.1879565253861
aF4578.191743961652
aF2838.4111046180024
aF2206.0399854941334
aF6328.122156744974
aF0.0
aF4498.9255505239125
aF4595.985421429694
aF0.0
aF1518.447669177538
aF2510.787012653688
aF0.0
aF4826.812561587891
aa(lp127
F4551.991879048746
aF0.0
aF0.0
aF0.0
aF1714.55516421886
aF4918.276456908648
aF2208.531676127739
aF0.0
aF3572.0433857964777
aF2876.843186696077
aF1180.1519056334273
aF1951.4074391696806
aF4238.816884231707
aF3751.444424672689
aa(lp128
F0.0
aF586.7668486665085
aF10206.892358071456
aF6328.122156744974
aF4918.276456908648
aF14108.291066623347
aF0.0
aF10030.171602519837
aF10246.562638550662
aF8252.350470036701
aF3385.3173430539146
aF0.0
aF12159.23157325867
aF0.0
aa(lp129
F5863.455702188247
aF263.4852235606457
aF4583.362746102272
aF2841.6170493924415
aF2208.531676127739
aF6335.269680275807
aF2844.8266152356823
aF4504.007022631961
aF4601.176521274695
aF3705.6838051432487
aF0.0
aF0.0
aF5460.052585940492
aF4832.264377388585
aa(lp130
F9283.182854839608
aF0.0
aF0.0
aF0.0
aF0.0
aF10030.171602519837
aF0.0
aF0.0
aF7284.708056794402
aF5866.939585221782
aF2406.7630671546735
aF3979.6362918582554
aF8644.504047913098
aF7650.572648051996
aa(lp131
F9483.458347147007
aF426.1567358296174
aF7413.056719487894
aF4595.985421429694
aF0.0
aF0.0
aF4601.176521274695
aF0.0
aF7441.868431118986
aF5993.513006443952
aF0.0
aF4065.4930104018076
aF8831.00067638859
aF7815.626189222234
aa(lp132
F0.0
aF0.0
aF0.0
aF0.0
aF2876.843186696077
aF0.0
aF0.0
aF5866.939585221782
aF5993.513006443952
aF4827.040210520281
aF1980.1707404000078
aF3274.256386146075
aF0.0
aF6294.529075887458
aa(lp133
F0.0
aF140.79607372285682
aF2449.16762457565
aF1518.447669177538
aF0.0
aF3385.3173430539146
aF1520.1627341173346
aF0.0
aF2458.686600890774
aF1980.1707404000078
aF812.3147912856693
aF1343.180584716011
aF2917.635972264723
aF2582.1708038611905
aa(lp134
F5180.813660120779
aF232.80944118901178
aF0.0
aF2510.787012653688
aF1951.4074391696806
aF0.0
aF2513.622910698848
aF3979.6362918582554
aF4065.4930104018076
aF0.0
aF1343.180584716011
aF0.0
aF0.0
aF0.0
aa(lp135
F11253.682842329625
aF505.70504668180854
aF0.0
aF5453.892492320627
aF0.0
aF12159.23157325867
aF5460.052585940492
aF8644.504047913098
aF8831.00067638859
aF7112.288789267375
aF2917.635972264723
aF0.0
aF10479.43452215123
aF9274.525719214287
aa(lp136
F0.0
aF0.0
aF7785.367448414797
aF4826.812561587891
aF0.0
aF0.0
aF0.0
aF7650.572648051996
aF7815.626189222234
aF6294.529075887458
aF0.0
aF4269.676888041757
aF9274.525719214287
aF8208.15542427853
aaa(lp137
(lp138
F11678.074575929073
aF524.7758739352674
aF9128.550581108997
aF5659.566219056098
aF0.0
aF12617.772784958943
aF0.0
aF8970.50008942246
aF9164.029760198688
aF7380.502902942561
aF0.0
aF0.0
aF10874.628295274928
aF9624.280737499059
aa(lp139
F524.7758739352674
aF0.0
aF0.0
aF254.32307264259757
aF197.66230007009707
aF0.0
aF254.6103269182137
aF403.10600805429016
aF411.8026216487379
aF0.0
aF136.0536802593274
aF0.0
aF488.67152973460753
aF432.4848503219649
aa(lp140
F0.0
aF0.0
aF7135.6314065356855
aF0.0
aF3438.363678263913
aF0.0
aF4428.982663239413
aF0.0
aF7163.364872253059
aF5769.2125209067635
aF0.0
aF3913.346505472103
aF8500.510405096355
aF7523.1351664890035
aa(lp141
F0.0
aF254.32307264259757
aF4423.985834469565
aF2742.8057236338273
aF2131.734578170878
aF6114.973846859319
aF0.0
aF4347.389541318803
aF4441.1801726415215
aF0.0
aF1467.3022351422562
aF2426.2168992813404
aF0.0
aF4664.2324289429
aa(lp142
F4398.668452035204
aF0.0
aF0.0
aF0.0
aF1656.8042980998416
aF4752.6155723090815
aF2134.1423419089288
aF0.0
aF3451.7272806926558
aF2779.943308997486
aF1140.4011900398632
aF1885.6787463197845
aF4096.042040066324
aF3625.085606220257
aa(lp143
F0.0
aF567.0029504685428
aF9863.09655239333
aF6114.973846859319
aF4752.6155723090815
aF13633.085575683132
aF0.0
aF9692.328230981655
aF9901.430630279192
aF7974.38893394379
aF3271.2906772871306
aF0.0
aF11749.675689988317
aF0.0
aa(lp144
F5665.958618210701
aF254.6103269182137
aF4428.982663239413
aF2745.903683496893
aF2134.1423419089288
aF6121.8806224205755
aF2749.0051424613457
aF4352.299855670296
aF4446.196422170584
aF3580.8663284143845
aF0.0
aF0.0
aF5276.143212550859
aF4669.500612807461
aa(lp145
F8970.50008942246
aF0.0
aF0.0
aF0.0
aF0.0
aF9692.328230981655
aF0.0
aF0.0
aF7039.339340474485
aF5669.3251546188
aF2325.696762277413
aF3845.591352686992
aF8353.333716182311
aF7392.880620433411
aa(lp146
F9164.029760198688
aF411.8026216487379
aF7163.364872253059
aF4441.1801726415215
aF0.0
aF0.0
aF4446.196422170584
aF0.0
aF7191.206127327377
aF5791.635239871516
aF0.0
aF3928.5561841909775
aF8533.548632615226
aF7552.374710874086
aa(lp147
F0.0
aF0.0
aF0.0
aF0.0
aF2779.943308997486
aF0.0
aF0.0
aF5669.3251546188
aF5791.635239871516
aF4664.452410042086
aF1913.473221586877
aF3163.970554496085
aF0.0
aF6082.512272036496
aa(lp148
F0.0
aF136.0536802593274
aF2366.673019244977
aF1467.3022351422562
aF0.0
aF3271.2906772871306
aF1468.9595320453104
aF0.0
aF2375.8713706317017
aF1913.473221586877
aF784.9538269159929
aF1297.9386212374318
aF2819.3620829582464
aF2495.1962908783057
aa(lp149
F5006.309810774218
aF224.96778805942265
aF0.0
aF2426.2168992813404
aF1885.6787463197845
aF0.0
aF2428.9572765921716
aF3845.591352686992
aF3928.5561841909775
aF0.0
aF1297.9386212374318
aF0.0
aF0.0
aF0.0
aa(lp150
F10874.628295274928
aF488.67152973460753
aF0.0
aF5270.19060758423
aF0.0
aF11749.675689988317
aF5276.143212550859
aF8353.333716182311
aF8533.548632615226
aF6872.727621309326
aF2819.3620829582464
aF0.0
aF10126.458757520468
aF8962.13454959464
aa(lp151
F0.0
aF0.0
aF7523.1351664890035
aF4664.2324289429
aF0.0
aF0.0
aF0.0
aF7392.880620433411
aF7552.374710874086
aF6082.512272036496
aF0.0
aF4125.862595286058
aF8962.13454959464
aF7931.682497140272
aaa(lp152
(lp153
F10186.646078318756
aF457.7557767303179
aF7962.726507112618
aF4936.7725523149
aF0.0
aF11006.3336915104
aF0.0
aF7824.860935964993
aF7993.674574637457
aF6437.925230178515
aF0.0
aF0.0
aF9485.809407791312
aF8395.146048592847
aa(lp154
F457.7557767303179
aF0.0
aF0.0
aF221.84300277553115
aF172.41848223771345
aF0.0
aF222.09357127645652
aF351.62459439648507
aF359.2105473881824
aF0.0
aF118.67801318131683
aF0.0
aF426.26238508680177
aF377.25141039476745
aa(lp155
F0.0
aF0.0
aF6224.326725361064
aF0.0
aF2999.243895155056
aF0.0
aF3863.349097840489
aF0.0
aF6248.518298890692
aF5032.415722213083
aF0.0
aF3413.56578722639
aF7414.894503265628
aF6562.3416636111215
aa(lp156
F0.0
aF221.84300277553115
aF3858.990423312299
aF2392.5169330426156
aF1859.4868134769783
aF5334.019229893088
aF0.0
aF3792.176384391342
aF3873.9888407628664
aF0.0
aF1279.9103535551005
aF2116.3602528414845
aF0.0
aF4068.5546809738858
aa(lp157
F3836.9063706021143
aF0.0
aF0.0
aF0.0
aF1445.2107576507497
aF4145.6502496746
aF1861.5870772559306
aF0.0
aF3010.9008072074553
aF2424.9116087096736
aF994.7584453839997
aF1644.855226884803
aF3572.928937281673
aF3162.119220431123
aa(lp158
F0.0
aF494.58995523892145
aF8603.462254181017
aF5334.019229893088
aF4145.6502496746
aF11891.979008351902
aF0.0
aF8454.503070858545
aF8636.900616097877
aF6955.964978026731
aF2853.5080960618498
aF0.0
aF10249.102881706383
aF0.0
aa(lp159
F4942.348566353508
aF222.09357127645652
aF3863.349097840489
aF2395.21924672324
aF1861.5870772559306
aF5340.04392837634
aF2397.9246126285434
aF3796.4595934175154
aF3878.364455789201
aF3123.547268358155
aF0.0
aF0.0
aF4602.317206944489
aF4073.15005533589
aa(lp160
F7824.860935964993
aF0.0
aF0.0
aF0.0
aF0.0
aF8454.503070858545
aF0.0
aF0.0
aF6140.332297106823
aF4945.285156171984
aF2028.677728402591
aF3354.4637702871432
aF7286.5140214320545
aF6448.722166481405
aa(lp161
F7993.674574637457
aF359.2105473881824
aF6248.518298890692
aF3873.9888407628664
aF0.0
aF0.0
aF3878.364455789201
aF0.0
aF6272.803895799179
aF5051.974794277783
aF0.0
aF3426.833009752393
aF7443.7133576582355
aF6587.846971716968
aa(lp162
F0.0
aF0.0
aF0.0
aF0.0
aF2424.9116087096736
aF0.0
aF0.0
aF4945.285156171984
aF5051.974794277783
aF4068.7465678801364
aF1669.1000183217448
aF2759.894024594326
aF0.0
aF5305.703382814449
aa(lp163
F0.0
aF118.67801318131683
aF2064.420831825066
aF1279.9103535551005
aF0.0
aF2853.5080960618498
aF1281.3559940062162
aF0.0
aF2072.444444747843
aF1669.1000183217448
aF684.7059222499406
aF1132.176479946384
aF2459.296138160032
aF2176.5301587902254
aa(lp164
F4366.9447278482285
aF196.23673586630136
aF0.0
aF2116.3602528414845
aF1644.855226884803
aF0.0
aF2118.7506514988136
aF3354.4637702871432
aF3426.833009752393
aF0.0
aF1132.176479946384
aF0.0
aF0.0
aF0.0
aa(lp165
F9485.809407791312
aF426.26238508680177
aF0.0
aF4597.124820164901
aF0.0
aF10249.102881706383
aF4602.317206944489
aF7286.5140214320545
aF7443.7133576582355
aF5994.998868672138
aF2459.296138160032
aF0.0
aF8833.189985117546
aF7817.563774697011
aa(lp166
F0.0
aF0.0
aF6562.3416636111215
aF4068.5546809738858
aF0.0
aF0.0
aF0.0
aF6448.722166481405
aF6587.846971716968
aF5305.703382814449
aF0.0
aF3598.941054254151
aF7817.563774697011
aF6918.712659234367
aaa(lp167
(lp168
F8149.316862655004
aF366.20462138425427
aF6370.1812056900935
aF3949.41804185192
aF0.0
aF8805.066953208317
aF0.0
aF6259.888748771993
aF6394.939659709965
aF5150.340184142811
aF0.0
aF0.0
aF7588.647526233049
aF6716.116838874276
aa(lp169
F366.20462138425427
aF0.0
aF0.0
aF177.47440222042488
aF137.93478579017074
aF0.0
aF177.6748570211652
aF281.299675517188
aF287.36843791054594
aF0.0
aF94.94241054505345
aF0.0
aF341.00990806944134
aF301.8011283158139
aa(lp170
F0.0
aF0.0
aF4979.46138028885
aF0.0
aF2399.3951161240448
aF0.0
aF3090.679278272391
aF0.0
aF4998.814639112553
aF4025.932577770466
aF0.0
aF2730.8526297811113
aF5931.915602612502
aF5249.873330888897
aa(lp171
F0.0
aF177.47440222042488
aF3087.192338649839
aF1914.0135464340922
aF1487.5894507815826
aF4267.21538391447
aF0.0
aF3033.741107513073
aF3099.191072610293
aF0.0
aF1023.9282828440804
aF1693.0882022731873
aF0.0
aF3254.8437447791084
aa(lp172
F3069.525096481691
aF0.0
aF0.0
aF0.0
aF1156.1686061205996
aF3316.5201997396794
aF1489.2696618047444
aF0.0
aF2408.720645765964
aF1939.9292869677388
aF795.8067563071996
aF1315.8841815078422
aF2858.343149825338
aF2529.6953763448982
aa(lp173
F0.0
aF395.6719641911371
aF6882.769803344813
aF4267.21538391447
aF3316.5201997396794
aF9513.58320668152
aF0.0
aF6763.6024566868355
aF6909.5204928783005
aF5564.771982421385
aF2282.8064768494796
aF0.0
aF8199.282305365106
aF0.0
aa(lp174
F3953.878853082806
aF177.6748570211652
aF3090.679278272391
aF1916.1753973785917
aF1489.2696618047444
aF4272.035142701072
aF1918.3396901028345
aF3037.167674734012
aF3102.6915646313605
aF2498.837814686524
aF0.0
aF0.0
aF3681.8537655555906
aF3258.5200442687114
aa(lp175
F6259.888748771993
aF0.0
aF0.0
aF0.0
aF0.0
aF6763.6024566868355
aF0.0
aF0.0
aF4912.265837685458
aF3956.228124937587
aF1622.9421827220724
aF2683.5710162297146
aF5829.211217145643
aF5158.977733185124
aa(lp176
F6394.939659709965
aF287.36843791054594
aF4998.814639112553
aF3099.191072610293
aF0.0
aF0.0
aF3102.6915646313605
aF0.0
aF5018.2431166393435
aF4041.579835422226
aF0.0
aF2741.466407801914
aF5954.970686126588
aF5270.277577373574
aa(lp177
F0.0
aF0.0
aF0.0
aF0.0
aF1939.9292869677388
aF0.0
aF0.0
aF3956.228124937587
aF4041.579835422226
aF3254.9972543041085
aF1335.2800146573957
aF2207.915219675461
aF0.0
aF4244.562706251558
aa(lp178
F0.0
aF94.94241054505345
aF1651.5366654600527
aF1023.9282828440804
aF0.0
aF2282.8064768494796
aF1025.0847952049728
aF0.0
aF1657.9555557982744
aF1335.2800146573957
aF547.7647377999524
aF905.7411839571071
aF1967.4369105280255
aF1741.2241270321801
aa(lp179
F3493.5557822785827
aF156.98938869304106
aF0.0
aF1693.0882022731873
aF1315.8841815078422
aF0.0
aF1695.0005211990508
aF2683.5710162297146
aF2741.466407801914
aF0.0
aF905.7411839571071
aF0.0
aF0.0
aF0.0
aa(lp180
F7588.647526233049
aF341.00990806944134
aF0.0
aF3677.6998561319206
aF0.0
aF8199.282305365106
aF3681.8537655555906
aF5829.211217145643
aF5954.970686126588
aF4795.99909493771
aF1967.4369105280255
aF0.0
aF7066.551988094036
aF6254.051019757608
aa(lp181
F0.0
aF0.0
aF5249.873330888897
aF3254.8437447791084
aF0.0
aF0.0
aF0.0
aF5158.977733185124
aF5270.277577373574
aF4244.562706251558
aF0.0
aF2879.1528434033203
aF6254.051019757608
aF5534.9701273874925
aaa(lp182
(lp183
F9167.98147048688
aF411.9801990572861
aF7166.453856401356
aF4443.09529708341
aF0.0
aF9905.700322359357
aF0.0
aF7042.374842368493
aF7194.307117173711
aF5794.132707160663
aF0.0
aF0.0
aF8537.228467012179
aF7555.631443733561
aa(lp184
F411.9801990572861
aF0.0
aF0.0
aF199.658702497978
aF155.17663401394208
aF0.0
aF199.88421414881083
aF316.4621349568365
aF323.28949264936415
aF0.0
aF106.81021186318513
aF0.0
aF383.6361465781215
aF339.52626935529065
aa(lp185
F0.0
aF0.0
aF5601.894052824957
aF0.0
aF2699.3195056395502
aF0.0
aF3477.0141880564397
aF0.0
aF5623.666469001621
aF4529.174149991774
aF0.0
aF3072.2092085037507
aF6673.405052939065
aF5906.107497250008
aa(lp186
F0.0
aF199.658702497978
aF3473.0913809810686
aF2153.2652397383536
aF1673.5381321292805
aF4800.617306903779
aF0.0
aF3412.958745952207
aF3486.5899566865796
aF0.0
aF1151.9193181995904
aF1904.7242275573356
aF0.0
aF3661.699212876497
aa(lp187
F3453.2157335419024
aF0.0
aF0.0
aF0.0
aF1300.6896818856746
aF3731.0852247071393
aF1675.4283695303375
aF0.0
aF2709.8107264867094
aF2182.420447838706
aF895.2826008455996
aF1480.3697041963223
aF3215.6360435535053
aF2845.9072983880105
aa(lp188
F0.0
aF445.13095971502923
aF7743.1160287629145
aF4800.617306903779
aF3731.0852247071393
aF10702.781107516712
aF0.0
aF7609.052763772689
aF7773.210554488088
aF6260.368480224057
aF2568.1572864556642
aF0.0
aF9224.192593535745
aF0.0
aa(lp189
F4448.113709718157
aF199.88421414881083
aF3477.0141880564397
aF2155.697322050916
aF1675.4283695303375
aF4806.039535538705
aF2158.132151365689
aF3416.8136340757633
aF3490.5280102102806
aF2811.192541522339
aF0.0
aF0.0
aF4142.085486250039
aF3665.8350498023005
aa(lp190
F7042.374842368493
aF0.0
aF0.0
aF0.0
aF0.0
aF7609.052763772689
aF0.0
aF0.0
aF5526.29906739614
aF4450.756640554785
aF1825.8099555623314
aF3019.017393258429
aF6557.862619288849
aF5803.849949833264
aa(lp191
F7194.307117173711
aF323.28949264936415
aF5623.666469001621
aF3486.5899566865796
aF0.0
aF0.0
aF3490.5280102102806
aF0.0
aF5645.5235062192605
aF4546.777314850005
aF0.0
aF3084.149708777153
aF6699.342021892411
aF5929.062274545271
aa(lp192
F0.0
aF0.0
aF0.0
aF0.0
aF2182.420447838706
aF0.0
aF0.0
aF4450.756640554785
aF4546.777314850005
aF3661.871911092122
aF1502.19001648957
aF2483.904622134893
aF0.0
aF4775.133044533003
aa(lp193
F0.0
aF106.81021186318513
aF1857.9787486425594
aF1151.9193181995904
aF0.0
aF2568.1572864556642
aF1153.2203946055945
aF0.0
aF1865.2000002730585
aF1502.19001648957
aF616.2353300249464
aF1018.9588319517455
aF2213.3665243440287
aF1958.8771429112028
aa(lp194
F3930.2502550634053
aF176.6130622796712
aF0.0
aF1904.7242275573356
aF1480.3697041963223
aF0.0
aF1906.875586348932
aF3019.017393258429
aF3084.149708777153
aF0.0
aF1018.9588319517455
aF0.0
aF0.0
aF0.0
aa(lp195
F8537.228467012179
aF383.6361465781215
aF0.0
aF4137.4123381484105
aF0.0
aF9224.192593535745
aF4142.085486250039
aF6557.862619288849
aF6699.342021892411
aF5395.4989818049235
aF2213.3665243440287
aF0.0
aF7949.87098660579
aF7035.807397227309
aa(lp196
F0.0
aF0.0
aF5906.107497250008
aF3661.699212876497
aF0.0
aF0.0
aF0.0
aF5803.849949833264
aF5929.062274545271
aF4775.133044533003
aF0.0
aF3239.0469488287354
aF7035.807397227309
aF6226.841393310929
aaa(lp197
(lp198
F9913.695719292036
aF445.4902476597608
aF7749.365893399544
aF4804.4921304540085
aF0.0
aF10711.41986908363
aF0.0
aF7615.194419097225
aF7779.484709954326
aF6265.421543542686
aF0.0
aF0.0
aF9231.637910753987
aF8170.198788186667
aa(lp199
F445.4902476597608
aF0.0
aF0.0
aF215.8987374315112
aF167.7985429301339
aF0.0
aF216.14259196968942
aF342.20284178573905
aF349.5855297796419
aF0.0
aF115.49804540219041
aF0.0
aF414.8407189020244
aF367.14298931888936
aa(lp200
F0.0
aF0.0
aF6057.546393412267
aF0.0
aF2918.879397193978
aF0.0
aF3759.8309707559015
aF0.0
aF6081.089755682805
aF4897.572549338614
aF0.0
aF3322.099567626607
aF7216.213003854427
aF6386.504248688949
aa(lp201
F0.0
aF215.8987374315112
aF3755.5890865597016
aF2328.4096350339596
aF1809.6620144762303
aF5191.094615386894
aF0.0
aF3690.5653244159375
aF3770.1856226259065
aF0.0
aF1245.6152589931683
aF2059.6525507772635
aF0.0
aF3959.538086861003
aa(lp202
F3734.096774258447
aF0.0
aF0.0
aF0.0
aF1406.4864521102204
aF4034.5678860243797
aF1811.706001856836
aF0.0
aF2930.2239632293094
aF2359.9362979826124
aF968.1039731735314
aF1600.7814639138132
aF3477.192594945831
aF3077.3904912825774
aa(lp203
F0.0
aF481.33745732983994
aF8372.93317786907
aF5191.094615386894
aF4034.5678860243797
aF11573.334391182325
aF0.0
aF8227.965343834243
aF8405.475561578745
aF6769.580458182586
aF2777.048577068305
aF0.0
aF9974.47899767671
aF0.0
aa(lp204
F4809.918735646754
aF216.14259196968942
aF3759.8309707559015
aF2331.039540437742
aF1811.706001856836
aF5196.957882560823
aF2333.67241628209
aF3694.7337652021533
aF3774.4439934009715
aF3039.8520715504537
aF0.0
aF0.0
aF4478.998489053224
aF3964.010328538086
aa(lp205
F7615.194419097225
aF0.0
aF0.0
aF0.0
aF0.0
aF8227.965343834243
aF0.0
aF0.0
aF5975.802589079971
aF4812.7766397781925
aF1974.3194724997425
aF3264.5811844583527
aF7091.272466663976
aF6275.929176809266
aa(lp206
F7779.484709954326
aF349.5855297796419
aF6081.089755682805
aF3770.1856226259065
aF0.0
aF0.0
aF3774.4439934009715
aF0.0
aF6104.72462198336
aF4916.607537646871
aF0.0
aF3335.0112959964454
aF7244.259659370906
aF6411.326144123829
aa(lp207
F0.0
aF0.0
aF0.0
aF0.0
aF2359.9362979826124
aF0.0
aF0.0
aF4812.7766397781925
aF4916.607537646871
aF3959.7248321730967
aF1624.376618122136
aF2685.9428870857723
aF0.0
aF5163.537489144026
aa(lp208
F0.0
aF115.49804540219041
aF2009.1048423525144
aF1245.6152589931683
aF0.0
aF2777.048577068305
aF1247.0221636251415
aF0.0
aF2016.9134632149876
aF1624.376618122136
aF666.3592823579726
aF1101.8399025972694
aF2393.399496743136
aF2118.2102089552427
aa(lp209
F4249.932796526399
aF190.97858837623184
aF0.0
aF2059.6525507772635
aF1600.7814639138132
aF0.0
aF2061.978898895611
aF3264.5811844583527
aF3335.0112959964454
aF0.0
aF1101.8399025972694
aF0.0
aF0.0
aF0.0
aa(lp210
F9231.637910753987
aF414.8407189020244
aF0.0
aF4473.945231858074
aF0.0
aF9974.47899767671
aF4478.998489053224
aF7091.272466663976
aF7244.259659370906
aF5834.363358123517
aF2393.399496743136
aF0.0
aF8596.50537280725
aF7608.092784676123
aa(lp211
F0.0
aF0.0
aF6386.504248688949
aF3959.538086861003
aF0.0
aF0.0
aF0.0
aF6275.929176809266
aF6411.326144123829
aF5163.537489144026
aF0.0
aF3502.507719344689
aF7608.092784676123
aF6733.326312263881
aaa(lp212
(lp213
F10186.646078318756
aF457.75577673031785
aF7962.726507112617
aF4936.7725523149
aF0.0
aF11006.333691510397
aF0.0
aF7824.860935964992
aF7993.674574637456
aF6437.9252301785145
aF0.0
aF0.0
aF9485.80940779131
aF8395.146048592846
aa(lp214
F457.75577673031785
aF0.0
aF0.0
aF221.84300277553112
aF172.41848223771342
aF0.0
aF222.0935712764565
aF351.624594396485
aF359.2105473881824
aF0.0
aF118.67801318131681
aF0.0
aF426.2623850868017
aF377.2514103947674
aa(lp215
F0.0
aF0.0
aF6224.326725361063
aF0.0
aF2999.2438951550557
aF0.0
aF3863.3490978404884
aF0.0
aF6248.518298890691
aF5032.4157222130825
aF0.0
aF3413.5657872263896
aF7414.8945032656275
aF6562.341663611121
aa(lp216
F0.0
aF221.84300277553112
aF3858.9904233122984
aF2392.516933042615
aF1859.486813476978
aF5334.019229893088
aF0.0
aF3792.1763843913413
aF3873.988840762866
aF0.0
aF1279.9103535551005
aF2116.360252841484
aF0.0
aF4068.5546809738853
aa(lp217
F3836.906370602114
aF0.0
aF0.0
aF0.0
aF1445.2107576507494
aF4145.650249674599
aF1861.5870772559304
aF0.0
aF3010.900807207455
aF2424.9116087096736
aF994.7584453839996
aF1644.8552268848027
aF3572.9289372816725
aF3162.1192204311224
aa(lp218
F0.0
aF494.5899552389214
aF8603.462254181017
aF5334.019229893088
aF4145.650249674599
aF11891.979008351902
aF0.0
aF8454.503070858544
aF8636.900616097875
aF6955.96497802673
aF2853.5080960618493
aF0.0
aF10249.102881706383
aF0.0
aa(lp219
F4942.3485663535075
aF222.0935712764565
aF3863.3490978404884
aF2395.2192467232394
aF1861.5870772559304
aF5340.04392837634
aF2397.9246126285434
aF3796.459593417515
aF3878.3644557892007
aF3123.5472683581547
aF0.0
aF0.0
aF4602.317206944488
aF4073.1500553358896
aa(lp220
F7824.860935964992
aF0.0
aF0.0
aF0.0
aF0.0
aF8454.503070858544
aF0.0
aF0.0
aF6140.332297106823
aF4945.2851561719835
aF2028.6777284025907
aF3354.463770287143
aF7286.514021432054
aF6448.722166481404
aa(lp221
F7993.674574637456
aF359.2105473881824
aF6248.518298890691
aF3873.988840762866
aF0.0
aF0.0
aF3878.3644557892007
aF0.0
aF6272.8038957991785
aF5051.974794277783
aF0.0
aF3426.8330097523926
aF7443.713357658235
aF6587.846971716967
aa(lp222
F0.0
aF0.0
aF0.0
aF0.0
aF2424.9116087096736
aF0.0
aF0.0
aF4945.2851561719835
aF5051.974794277783
aF4068.746567880136
aF1669.1000183217445
aF2759.894024594326
aF0.0
aF5305.703382814448
aa(lp223
F0.0
aF118.67801318131681
aF2064.4208318250658
aF1279.9103535551005
aF0.0
aF2853.5080960618493
aF1281.355994006216
aF0.0
aF2072.444444747843
aF1669.1000183217445
aF684.7059222499405
aF1132.176479946384
aF2459.2961381600317
aF2176.5301587902254
aa(lp224
F4366.9447278482285
aF196.23673586630136
aF0.0
aF2116.360252841484
aF1644.8552268848027
aF0.0
aF2118.7506514988136
aF3354.463770287143
aF3426.8330097523926
aF0.0
aF1132.176479946384
aF0.0
aF0.0
aF0.0
aa(lp225
F9485.80940779131
aF426.2623850868017
aF0.0
aF4597.1248201649005
aF0.0
aF10249.102881706383
aF4602.317206944488
aF7286.514021432054
aF7443.713357658235
aF5994.998868672137
aF2459.2961381600317
aF0.0
aF8833.189985117544
aF7817.56377469701
aa(lp226
F0.0
aF0.0
aF6562.341663611121
aF4068.5546809738853
aF0.0
aF0.0
aF0.0
aF6448.722166481404
aF6587.846971716967
aF5305.703382814448
aF0.0
aF3598.9410542541505
aF7817.56377469701
aF6918.712659234366
aaaa.