(lp0
(lp1
(lp2
I1
aI1
aI1
aI1
aI1
aI1
aI0
aI0
aI0
aI1
aI1
aI1
aI0
aI0
aa(lp3
I1
aI0
aI1
aI1
aI0
aI1
aI1
aI0
aI1
aI1
aI1
aI0
aI1
aI0
aa(lp4
I1
aI1
aI0
aI0
aI1
aI1
aI0
aI0
aI1
aI0
aI1
aI1
aI0
aI1
aa(lp5
I0
aI1
aI1
aI0
aI0
aI1
aI1
aI1
aI1
aI0
aI1
aI1
aI0
aI0
aa(lp6
I1
aI1
aI1
aI1
aI1
aI0
aI0
aI1
aI1
aI0
aI0
aI1
aI1
aI1
aa(lp7
I0
aI0
aI0
aI0
aI0
aI1
aI1
aI1
aI1
aI1
aI0
aI1
aI1
aI1
aa(lp8
I1
aI0
aI1
aI1
aI1
aI0
aI1
aI1
aI1
aI0
aI1
aI1
aI1
aI1
aa(lp9
I1
aI1
aI0
aI1
aI1
aI1
aI1
aI0
aI1
aI1
aI0
aI1
aI0
aI1
aa(lp10
I1
aI1
aI1
aI0
aI1
aI1
aI1
aI1
aI1
aI1
aI1
aI1
aI1
aI1
aa(lp11
I0
aI1
aI0
aI1
aI1
aI0
aI0
aI1
aI1
aI1
aI1
aI1
aI1
aI0
aa(lp12
I1
aI1
aI1
aI0
aI1
aI1
aI1
aI0
aI0
aI1
aI1
aI0
aI0
aI1
aa(lp13
I0
aI0
aI1
aI1
aI1
aI0
aI0
aI0
aI1
aI1
aI1
aI1
aI1
aI1
aa(lp14
I1
aI1
aI0
aI1
aI1
aI1
aI1
aI1
aI1
aI0
aI1
aI0
aI0
aI1
aa(lp15
I1
aI1
aI1
aI1
aI1
aI1
aI1
aI1
aI0
aI1
aI1
aI1
aI0
aI0
aaa(lp16
(lp17
(lp18
F1036.6393496824078
aF2378.8373702444305
aF1471.3045533182817
aF2036.1793351067438
aF3291.108687059602
aF2878.4301129310334
aF0.0
aF0.0
aF0.0
aF2404.2596639998983
aF2855.2258366964998
aF441.03366476370553
aF0.0
aF0.0
aa(lp19
F2378.8373702444305
aF0.0
aF3376.289213328242
aF4672.540644299621
aF0.0
aF6605.303109876187
aF3103.057947451749
aF0.0
aF7208.068709822229
aF5517.196253688897
aF6552.054890547938
aF0.0
aF5924.438372593348
aF0.0
aa(lp20
F1471.3045533182817
aF3376.289213328242
aF0.0
aF0.0
aF4671.0779387446955
aF4085.3623131915288
aF0.0
aF0.0
aF4458.171225174071
aF0.0
aF4052.428431904094
aF625.9600692683414
aF0.0
aF1961.0888669489466
aa(lp21
F0.0
aF4672.540644299621
aF2889.953895762272
aF0.0
aF0.0
aF5653.8466490730425
aF2656.08004450963
aF5632.608951823161
aF6169.787282037471
aF0.0
aF5608.26853382077
aF866.2835677165614
aF0.0
aF0.0
aa(lp22
F3291.108687059602
aF7552.300939291968
aF4671.0779387446955
aF6464.434810654353
aF10448.567665656872
aF0.0
aF0.0
aF9104.074445968718
aF9972.324230546661
aF0.0
aF0.0
aF1400.187756556079
aF8196.428573840574
aF4386.689751999529
aa(lp23
F0.0
aF0.0
aF0.0
aF0.0
aF0.0
aF7992.519208890267
aF3754.7482437596404
aF7962.4966925827
aF8721.874933508529
aF6675.8930367470275
aF0.0
aF1224.6154671449701
aF7168.662316804186
aF3836.634119039879
aa(lp24
F1352.237026755083
aF0.0
aF1919.2330440088558
aF2656.08004450963
aF4293.0639542872295
aF0.0
aF1763.9162328611515
aF3740.6441812690946
aF4097.387035673998
aF0.0
aF3724.4795861855273
aF575.303312305946
aF3367.714426533572
aF1802.3848105850805
aa(lp25
F2867.617787962263
aF6580.491430961222
aF0.0
aF5632.608951823161
aF9104.074445968718
aF7962.4966925827
aF3740.6441812690946
aF0.0
aF8689.112718544748
aF6650.816198978484
aF0.0
aF1220.0154109083883
aF0.0
aF3822.222466418898
aa(lp26
F3141.1006709754383
aF7208.068709822229
aF4458.171225174071
aF0.0
aF9972.324230546661
aF8721.874933508529
aF4097.387035673998
aF8689.112718544748
aF9517.787867328329
aF7285.10030619902
aF8651.564108753399
aF1336.3675040277526
aF7822.837147288244
aF4186.745389948667
aa(lp27
F0.0
aF5517.196253688897
aF0.0
aF4722.475415936214
aF7633.011296128443
aF0.0
aF0.0
aF6650.816198978484
aF7285.10030619902
aF5576.157738665666
aF6622.0757613367405
aF1022.8817292940784
aF5987.751995680057
aF0.0
aa(lp28
F2855.2258366964998
aF6552.054890547938
aF4052.428431904094
aF0.0
aF9064.73264549311
aF7928.088037641835
aF3724.4795861855273
aF0.0
aF0.0
aF6622.0757613367405
aF7864.1762740694985
aF0.0
aF0.0
aF3805.7053438338753
aa(lp29
F0.0
aF0.0
aF625.9600692683414
aF866.2835677165614
aF1400.187756556079
aF0.0
aF0.0
aF0.0
aF1336.3675040277526
aF1022.8817292940784
aF1214.743309591776
aF187.6358383602708
aF1098.3839415903785
aF587.8498832666189
aa(lp30
F2581.725854242663
aF5924.438372593348
aF0.0
aF5071.056616681822
aF8196.428573840574
aF7168.662316804186
aF3367.714426533572
aF7141.734476446883
aF7822.837147288244
aF0.0
aF7110.872614047838
aF0.0
aF0.0
aF3441.159628610412
aa(lp31
F1381.727449370292
aF3170.7313571123545
aF1961.0888669489466
aF2714.0054832179435
aF4386.689751999529
aF3836.634119039879
aF1802.3848105850805
aF3822.222466418898
aF0.0
aF3204.616508316239
aF3805.7053438338753
aF587.8498832666189
aF0.0
aF0.0
aaa(lp32
(lp33
F1170.7903529826574
aF2686.681578554858
aF1661.705373090696
aF2299.6803306916504
aF3717.0094909162904
aF3250.9263795426086
aF0.0
aF0.0
aF0.0
aF2715.393759207379
aF3224.719248999417
aF498.1076207498093
aF0.0
aF0.0
aa(lp34
F2686.681578554858
aF0.0
aF3813.2131884200203
aF5277.211898179794
aF0.0
aF7460.09223163162
aF3504.6231948803743
aF0.0
aF8140.861440077002
aF6231.17398670038
aF7399.953185663398
aF0.0
aF6691.117113775019
aF0.0
aa(lp35
F1661.705373090696
aF3813.2131884200203
aF0.0
aF0.0
aF5275.559904597372
aF4614.047099590557
aF0.0
aF0.0
aF5035.101034875615
aF0.0
aF4576.851260449956
aF706.9652629685113
aF0.0
aF2214.872440901402
aa(lp36
F0.0
aF5277.211898179794
aF3263.9414496080226
aF0.0
aF0.0
aF6385.508244507629
aF2999.802094927552
aF6361.522186996552
aF6968.216508448779
aF0.0
aF6334.031887121773
aF978.388910608764
aF0.0
aF0.0
aa(lp37
F3717.0094909162904
aF8529.640598009177
aF5275.559904597372
aF7300.99423306488
aF11800.711818614065
aF0.0
aF0.0
aF10282.22837329266
aF11262.83794794807
aF0.0
aF0.0
aF1581.3853856141213
aF9257.124482206791
aF4954.369178386295
aa(lp38
F0.0
aF0.0
aF0.0
aF0.0
aF0.0
aF9026.827303694534
aF4240.648421284759
aF8992.919587885817
aF9850.568604405673
aF7539.817167235744
aF0.0
aF1383.0923700570895
aF8096.355484553028
aF4333.131108588705
aa(lp39
F1527.229374763594
aF0.0
aF2167.600075898644
aF2999.802094927552
aF4848.627310893566
aF0.0
aF1992.1837903761307
aF4224.719158801278
aF4627.6279356682935
aF0.0
aF4206.462711185713
aF649.753039273617
aF3803.528742560273
aF2035.6305683765397
aa(lp40
F3238.7148367619607
aF7432.069685194574
aF0.0
aF6361.522186996552
aF10282.22837329266
aF8992.919587885817
aF4224.719158801278
aF0.0
aF9813.566646845708
aF7511.495147864478
aF0.0
aF1377.8970227392224
aF0.0
aF4316.854450882869
aa(lp41
F3547.5890090918138
aF8140.861440077002
aF5035.101034875615
aF0.0
aF11262.83794794807
aF9850.568604405673
aF4627.6279356682935
aF9813.566646845708
aF10749.480250983466
aF8227.861658562277
aF9771.158889388797
aF1509.3061846770036
aF8835.186767515079
aF4728.550111905615
aa(lp42
F0.0
aF6231.17398670038
aF0.0
aF5333.608704772584
aF8620.795643588803
aF0.0
aF0.0
aF7511.495147864478
aF8227.861658562277
aF6297.765649296905
aF7479.035423909602
aF1155.2523655084326
aF6762.62412259637
aF0.0
aa(lp43
F3224.719248999417
aF7399.953185663398
aF4576.851260449956
aF0.0
aF10237.795369201196
aF8954.058125337424
aF4206.462711185713
aF0.0
aF0.0
aF7479.035423909602
aF8881.875570955783
aF0.0
aF0.0
aF4298.199855350197
aa(lp44
F0.0
aF0.0
aF706.9652629685113
aF978.388910608764
aF1581.3853856141213
aF0.0
aF0.0
aF0.0
aF1509.3061846770036
aF1155.2523655084326
aF1371.9426613083858
aF211.91770261597892
aF1240.5252830495608
aF663.9232559919662
aa(lp45
F2915.8257643984507
aF6691.117113775019
aF0.0
aF5727.299632277027
aF9257.124482206791
aF8096.355484553028
aF3803.528742560273
aF8065.942925231749
aF8835.186767515079
aF0.0
aF8031.087243954602
aF0.0
aF0.0
aF3886.4784531715572
aa(lp46
F1560.5361388892725
aF3581.0541881745744
aF2214.872440901402
aF3065.2236370026803
aF4954.369178386295
aF4333.131108588705
aF2035.6305683765397
aF4316.854450882869
aF0.0
aF3619.3244006173304
aF4298.199855350197
aF663.9232559919662
aF0.0
aF0.0
aaa(lp47
(lp48
F1295.79918710301
aF2973.546712805538
aF1839.130691647852
aF2545.2241688834297
aF4113.885858824502
aF3598.0376411637912
aF0.0
aF0.0
aF0.0
aF3005.3245799998726
aF3569.0322958706247
aF551.292080954632
aF0.0
aF0.0
aa(lp49
F2973.546712805538
aF0.0
aF4220.361516660302
aF5840.675805374526
aF0.0
aF8256.628887345234
aF3878.8224343146867
aF0.0
aF9010.085887277786
aF6896.495317111121
aF8190.068613184923
aF0.0
aF7405.547965741685
aF0.0
aa(lp50
F1839.130691647852
aF4220.361516660302
aF0.0
aF0.0
aF5838.84742343087
aF5106.702891489411
aF0.0
aF0.0
aF5572.714031467589
aF0.0
aF5065.5355398801175
aF782.4500865854267
aF0.0
aF2451.3610836861835
aa(lp51
F0.0
aF5840.675805374526
aF3612.44236970284
aF0.0
aF0.0
aF7067.308311341303
aF3320.1000556370377
aF7040.761189778951
aF7712.234102546839
aF0.0
aF7010.335667275963
aF1082.8544596457018
aF0.0
aF0.0
aa(lp52
F4113.885858824502
aF9440.37617411496
aF5838.84742343087
aF8080.543513317941
aF13060.709582071091
aF0.0
aF0.0
aF11380.093057460897
aF12465.405288183327
aF0.0
aF0.0
aF1750.2346956950985
aF10245.535717300718
aF5483.362189999411
aa(lp53
F0.0
aF0.0
aF0.0
aF0.0
aF0.0
aF9990.649011112833
aF4693.43530469955
aF9953.120865728375
aF10902.34366688566
aF8344.866295933783
aF0.0
aF1530.7693339312127
aF8960.827896005232
aF4795.792648799848
aa(lp54
F1690.2962834438536
aF0.0
aF2399.0413050110697
aF3320.1000556370377
aF5366.329942859037
aF0.0
aF2204.895291076439
aF4675.805226586368
aF5121.733794592497
aF0.0
aF4655.599482731909
aF719.1291403824324
aF4209.643033166964
aF2252.9810132313505
aa(lp55
F3584.5222349528285
aF8225.614288701527
aF0.0
aF7040.761189778951
aF11380.093057460897
aF9953.120865728375
aF4675.805226586368
aF0.0
aF10861.390898180935
aF8313.520248723105
aF0.0
aF1525.0192636354852
aF0.0
aF4777.7780830236225
aa(lp56
F3926.3758387192984
aF9010.085887277786
aF5572.714031467589
aF0.0
aF12465.405288183327
aF10902.34366688566
aF5121.733794592497
aF10861.390898180935
aF11897.234834160412
aF9106.375382748776
aF10814.455135941747
aF1670.4593800346906
aF9778.546434110303
aF5233.431737435834
aa(lp57
F0.0
aF6896.495317111121
aF0.0
aF5903.094269920267
aF9541.264120160555
aF0.0
aF0.0
aF8313.520248723105
aF9106.375382748776
aF6970.1971733320825
aF8277.594701670925
aF1278.602161617598
aF7484.689994600071
aF0.0
aa(lp58
F3569.0322958706247
aF8190.068613184923
aF5065.5355398801175
aF0.0
aF11330.915806866387
aF9910.110047052294
aF4655.599482731909
aF0.0
aF0.0
aF8277.594701670925
aF9830.220342586874
aF0.0
aF0.0
aF4757.131679792345
aa(lp59
F0.0
aF0.0
aF782.4500865854267
aF1082.8544596457018
aF1750.2346956950985
aF0.0
aF0.0
aF0.0
aF1670.4593800346906
aF1278.602161617598
aF1518.42913698972
aF234.54479795033853
aF1372.9799269879732
aF734.8123540832737
aa(lp60
F3227.1573178033286
aF7405.547965741685
aF0.0
aF6338.820770852278
aF10245.535717300718
aF8960.827896005232
aF4209.643033166964
aF8927.168095558603
aF9778.546434110303
aF0.0
aF8888.590767559797
aF0.0
aF0.0
aF4301.449535763015
aa(lp61
F1727.1593117128652
aF3963.414196390443
aF2451.3610836861835
aF3392.5068540224293
aF5483.362189999411
aF4795.792648799848
aF2252.9810132313505
aF4777.7780830236225
aF0.0
aF4005.7706353952985
aF4757.131679792345
aF734.8123540832737
aF0.0
aF0.0
aaa(lp62
(lp63
F1403.1467065850295
aF3219.8833881643354
aF1991.4892667392821
aF2756.0774428896907
aF4454.691322180502
aF3896.1088389435795
aF0.0
aF0.0
aF0.0
aF3254.293820073707
aF3864.7006121700642
aF596.9626123066909
aF0.0
aF0.0
aa(lp64
F3219.8833881643354
aF0.0
aF4569.9877123239385
aF6324.5332317766315
aF0.0
aF8940.630420269208
aF4200.15460598072
aF0.0
aF9756.505841809161
aF7467.819695749114
aF8868.556112454402
aF0.0
aF8019.043646584622
aF0.0
aa(lp65
F1991.4892667392821
aF4569.9877123239385
aF0.0
aF0.0
aF6322.553381713323
aF5529.756010822373
aF0.0
aF0.0
aF6034.372777679733
aF0.0
aF5485.17824414037
aF847.2703741341638
aF0.0
aF2654.4384851134682
aa(lp66
F0.0
aF6324.5332317766315
aF3911.7068942672636
aF0.0
aF0.0
aF7652.783301747236
aF3595.146149933143
aF7624.036944626265
aF8351.136494841077
aF0.0
aF7591.090889310672
aF1172.5610602979893
aF0.0
aF0.0
aa(lp67
F4454.691322180502
aF10222.442543159408
aF6322.553381713323
aF8749.957656230386
aF14142.694190693106
aF0.0
aF0.0
aF12322.850834554538
aF13498.073274351893
aF0.0
aF0.0
aF1895.2288853536697
aF11094.303686877502
aF5937.618787299729
aa(lp68
F0.0
aF0.0
aF0.0
aF0.0
aF0.0
aF10818.30147457529
aF5082.252216165001
aF10777.66439583304
aF11805.523388580952
aF9036.177655126965
aF0.0
aF1657.5824177270401
aF9703.16718492854
aF5193.089120292266
aa(lp69
F1830.3250124501099
aF0.0
aF2597.7843940568364
aF3595.146149933143
aF5810.891271359246
aF0.0
aF2387.5547977117258
aF5063.161614559784
aF5546.032114709463
aF0.0
aF5041.281972076854
aF778.7037489912541
aF4558.381280584398
aF2439.624071521251
aa(lp70
F3881.473779821904
aF8907.046488147545
aF0.0
aF7624.036944626265
aF12322.850834554538
aF10777.66439583304
aF5063.161614559784
aF0.0
aF11761.17798143338
aF9002.234816339997
aF0.0
aF1651.355996011095
aF0.0
aF5173.582179023085
aa(lp71
F4251.647463393612
aF9756.505841809161
aF6034.372777679733
aF0.0
aF13498.073274351893
aF11805.523388580952
aF5546.032114709463
aF11761.17798143338
aF12882.834038769783
aF9860.772220267781
aF11710.353933338236
aF1808.8447661554349
aF10588.627744771014
aF5666.983418115777
aa(lp72
F0.0
aF7467.819695749114
aF0.0
aF6392.122611233843
aF10331.688320311412
aF0.0
aF0.0
aF9002.234816339997
aF9860.772220267781
aF7547.627213653834
aF8963.333099522879
aF1384.5250328619109
aF8104.742015784383
aF0.0
aa(lp73
F3864.7006121700642
aF8868.556112454402
aF5485.17824414037
aF0.0
aF12269.599607128734
aF10731.09044427208
aF5041.281972076854
aF0.0
aF0.0
aF8963.333099522879
aF10644.582459989948
aF0.0
aF0.0
aF5151.225371745282
aa(lp74
F0.0
aF0.0
aF847.2703741341638
aF1172.5610602979893
aF1895.2288853536697
aF0.0
aF0.0
aF0.0
aF1808.8447661554349
aF1384.5250328619109
aF1644.2199253984434
aF253.975125209356
aF1486.721308312861
aF795.6862026553922
aa(lp75
F3494.5037835924727
aF8019.043646584622
aF0.0
aF6863.945877400135
aF11094.303686877502
aF9703.16718492854
aF4558.381280584398
aF9666.718915311556
aF10588.627744771014
aF0.0
aF9624.945736821306
aF0.0
aF0.0
aF4657.793282878313
aa(lp76
F1870.2418739709549
aF4291.75417907984
aF2654.4384851134682
aF3673.5513238983835
aF5937.618787299729
aF5193.089120292266
aF2439.624071521251
aF5173.582179023085
aF0.0
aF4337.619540382623
aF5151.225371745282
aF795.6862026553922
aF0.0
aF0.0
aaa(lp77
(lp78
F1485.5173553761804
aF3408.9041672961525
aF2108.3981132569556
aF2917.8708505384175
aF4716.200551864234
aF4124.826913339225
aF0.0
aF0.0
aF0.0
aF3445.3346371589732
aF4091.574890756923
aF632.0068435684649
aF0.0
aF0.0
aa(lp79
F3408.9041672961525
aF0.0
aF4838.2653279610595
aF6695.810093389011
aF0.0
aF9465.483256300753
aF4446.721453405955
aF0.0
aF10329.254017287114
aF7906.212310368356
aF9389.17788165023
aF0.0
aF8489.795439503936
aF0.0
aa(lp80
F2108.3981132569556
aF4838.2653279610595
aF0.0
aF0.0
aF6693.714017749674
aF5854.3760866352395
aF0.0
aF0.0
aF6388.61599288484
aF0.0
aF5807.181416427735
aF897.0087301388664
aF0.0
aF2810.2652558772606
aa(lp81
F0.0
aF6695.810093389011
aF4141.340640510238
aF0.0
aF0.0
aF8102.03406267243
aF3806.196441024751
aF8071.600172754409
aF8841.383543132768
aF0.0
aF8036.720044587617
aF1241.3953559783408
aF0.0
aF0.0
aa(lp82
F4716.200551864234
aF10822.543174517927
aF6693.714017749674
aF9263.61719422191
aF14972.930181466632
aF0.0
aF0.0
aF13046.25432004554
aF14290.467289760916
aF0.0
aF0.0
aF2006.4868401788312
aF11745.586256465871
aF6286.182133875754
aa(lp83
F0.0
aF0.0
aF0.0
aF0.0
aF0.0
aF11453.381546457304
aF5380.6019257150665
aF11410.358899245794
aF12498.557564033075
aF9566.63951813231
aF0.0
aF1754.8895193524158
aF10272.784155556503
aF5497.94542509721
aa(lp84
F1937.7728353090024
aF0.0
aF2750.285329955959
aF3806.196441024751
aF6152.015176529238
aF0.0
aF2527.7143667639034
aF5360.390625017833
aF5871.607666689346
aF0.0
aF5337.226554942137
aF824.4169539750867
aF4825.977549568279
aF2582.8403272660216
aa(lp85
F4109.33271432199
aF9429.927805260337
aF0.0
aF8071.600172754409
aF13046.25432004554
aF11410.358899245794
aF5360.390625017833
aF0.0
aF12451.608893847853
aF9530.704091086696
aF0.0
aF1748.2975803359752
aF0.0
aF5477.293343836087
aa(lp86
F4501.237159429976
aF10329.254017287114
aF6388.61599288484
aF0.0
aF14290.467289760916
aF12498.557564033075
aF5871.607666689346
aF12451.608893847853
aF13639.11090779715
aF10439.641273342091
aF12397.801259078456
aF1915.0316076677707
aF11210.224996898345
aF5999.659323385133
aa(lp87
F0.0
aF7906.212310368356
aF0.0
aF6767.367255410335
aF10938.20214103885
aF0.0
aF0.0
aF9530.704091086696
aF10439.641273342091
aF7990.704867262493
aF9489.518678888136
aF1465.8025106118928
aF8580.524665590006
aF0.0
aa(lp88
F4091.574890756923
aF9389.17788165023
aF5807.181416427735
aF0.0
aF12989.877020248685
aF11361.050859660507
aF5337.226554942137
aF0.0
aF0.0
aF9489.518678888136
aF11269.464490661017
aF0.0
aF0.0
aF5453.624097373039
aa(lp89
F0.0
aF0.0
aF897.0087301388664
aF1241.3953559783408
aF2006.4868401788312
aF0.0
aF0.0
aF0.0
aF1915.0316076677707
aF1465.8025106118928
aF1740.7425921836075
aF268.8845397004634
aF1573.9981398534537
aF842.3963495269232
aa(lp90
F3699.645941933276
aF8489.795439503936
aF0.0
aF7266.888543719633
aF11745.586256465871
aF10272.784155556503
aF4825.977549568279
aF10234.19621828996
aF11210.224996898345
aF0.0
aF10189.97077746808
aF0.0
aF0.0
aF4931.225457037432
aa(lp91
F1980.032985500767
aF4543.698309029958
aF2810.2652558772606
aF3889.204330456443
aF6286.182133875754
aF5497.94542509721
aF2582.8403272660216
aF5477.293343836087
aF0.0
aF4592.256161110663
aF5453.624097373039
aF842.3963495269232
aF0.0
aF0.0
aaa(lp92
(lp93
F1537.2977098852791
aF3527.7275964747637
aF2181.8900865116966
aF3019.5784384745975
aF4880.592126037191
aF4268.605105555155
aF0.0
aF0.0
aF0.0
aF3565.4279152811882
aF4234.194024472981
aF654.0365682927946
aF0.0
aF0.0
aa(lp94
F3527.7275964747637
aF0.0
aF5006.911687415718
aF6929.2044856568045
aF0.0
aF9795.419542024641
aF4601.719853409345
aF0.0
aF10689.298572063935
aF8181.7974287605975
aF9716.454407569863
aF0.0
aF8785.722387766295
aF0.0
aa(lp95
F2181.8900865116966
aF5006.911687415718
aF0.0
aF0.0
aF6927.0353475659995
aF6058.440797221402
aF0.0
aF0.0
aF6611.302587381278
aF0.0
aF6009.601072686232
aF928.2755678343339
aF0.0
aF2908.222059065924
aa(lp96
F0.0
aF6929.2044856568045
aF4285.694448113015
aF0.0
aF0.0
aF8384.444897181822
aF3938.8682003510653
aF8352.950179799656
aF9149.565721252386
aF0.0
aF8316.854242611675
aF1284.666403190192
aF0.0
aF0.0
aa(lp97
F4880.592126037191
aF11199.782201876618
aF6927.0353475659995
aF9586.517078640914
aF15494.8383436503
aF0.0
aF0.0
aF13501.004761878481
aF14788.586991753302
aF0.0
aF0.0
aF2076.4265144117126
aF12154.999595243718
aF6505.298213686496
aa(lp98
F0.0
aF0.0
aF0.0
aF0.0
aF0.0
aF11852.609569379558
aF5568.152393690119
aF11808.087291136158
aF12934.217059478098
aF9900.101785615681
aF0.0
aF1816.0593206391595
aF10630.860352677382
aF5689.586109841092
aa(lp99
F2005.3173604586211
aF0.0
aF2846.151425946625
aF3938.8682003510653
aF6366.454627965583
aF0.0
aF2615.8223552267054
aF5547.236592091967
aF6076.273014703759
aF0.0
aF5523.265097077039
aF853.1534759589254
aF4994.1955966111
aF2672.8698293127104
aa(lp100
F4252.570828621602
aF9758.624742380898
aF0.0
aF8352.950179799656
aF13501.004761878481
aF11808.087291136158
aF5547.236592091967
aF0.0
aF12885.631909734342
aF9862.91376522599
aF0.0
aF1809.2376078419293
aF0.0
aF5668.214163487056
aa(lp101
F4658.135801509988
aF10689.298572063935
aF6611.302587381278
aF0.0
aF14788.586991753302
aF12934.217059478098
aF6076.273014703759
aF12885.631909734342
aF14114.526422424922
aF10803.533572631039
aF12829.948713973636
aF1981.783446804686
aF11600.97736499785
aF6208.788140072725
aa(lp102
F0.0
aF8181.7974287605975
aF0.0
aF7003.255900070213
aF11319.472667771774
aF0.0
aF0.0
aF9862.91376522599
aF10803.533572631039
aF8269.235124285075
aF9820.292762095742
aF1516.8956690762652
aF8879.614142700697
aF0.0
aa(lp103
F4234.194024472981
aF9716.454407569863
aF6009.601072686232
aF0.0
aF13442.662330836822
aF11757.060531967669
aF5523.265097077039
aF0.0
aF0.0
aF9820.292762095742
aF11662.281756876233
aF0.0
aF0.0
aF5643.719883261605
aa(lp104
F0.0
aF0.0
aF928.2755678343339
aF1284.666403190192
aF2076.4265144117126
aF0.0
aF0.0
aF0.0
aF1981.783446804686
aF1516.8956690762652
aF1801.419277115053
aF278.2569894650641
aF1628.8626497720436
aF871.7595753807395
aa(lp105
F3828.603693748261
aF8785.722387766295
aF0.0
aF7520.18889299534
aF12154.999595243718
aF10630.860352677382
aF4994.1955966111
aF10590.927364096424
aF11600.97736499785
aF0.0
aF10545.16036672807
aF0.0
aF0.0
aF5103.11210743946
aa(lp106
F2049.0505634899355
aF4702.077010142059
aF2908.222059065924
aF4024.769477683121
aF6505.298213686496
aF5689.586109841092
aF2672.8698293127104
aF5668.214163487056
aF0.0
aF4752.327432683715
aF5643.719883261605
aF871.7595753807395
aF0.0
aF0.0
aaa(lp107
(lp108
F1554.9590245236118
aF3568.256055366646
aF2206.9568299774223
aF3054.269002660116
aF4936.663030589402
aF4317.64516939655
aF0.0
aF0.0
aF0.0
aF3606.3894959998474
aF4282.83875504475
aF661.5504971455583
aF0.0
aF0.0
aa(lp109
F3568.256055366646
aF0.0
aF5064.433819992363
aF7008.810966449431
aF0.0
aF9907.95466481428
aF4654.5869211776235
aF0.0
aF10812.103064733343
aF8275.794380533345
aF9828.082335821908
aF0.0
aF8886.657558890021
aF0.0
aa(lp110
F2206.9568299774223
aF5064.433819992363
aF0.0
aF0.0
aF7006.616908117043
aF6128.043469787293
aF0.0
aF0.0
aF6687.256837761107
aF0.0
aF6078.642647856141
aF938.940103902512
aF0.0
aF2941.63330042342
aa(lp111
F0.0
aF7008.810966449431
aF4334.9308436434085
aF0.0
aF0.0
aF8480.769973609564
aF3984.1200667644453
aF8448.913427734742
aF9254.680923056207
aF0.0
aF8412.402800731155
aF1299.4253515748421
aF0.0
aF0.0
aa(lp112
F4936.663030589402
aF11328.451408937952
aF7006.616908117043
aF9696.652215981529
aF15672.851498485308
aF0.0
aF0.0
aF13656.111668953077
aF14958.486345819992
aF0.0
aF0.0
aF2100.2816348341184
aF12294.642860760863
aF6580.034627999294
aa(lp113
F0.0
aF0.0
aF0.0
aF0.0
aF0.0
aF11988.7788133354
aF5632.12236563946
aF11943.745038874049
aF13082.812400262792
aF10013.839555120541
aF0.0
aF1836.9232007174553
aF10752.99347520628
aF5754.951178559818
aa(lp114
F2028.3555401326244
aF0.0
aF2878.8495660132835
aF3984.1200667644453
aF6439.595931430844
aF0.0
aF2645.874349291727
aF5610.966271903642
aF6146.080553510997
aF0.0
aF5586.719379278291
aF862.9549684589189
aF5051.571639800358
aF2703.577215877621
aa(lp115
F4301.426681943394
aF9870.737146441832
aF0.0
aF8448.913427734742
aF13656.111668953077
aF11943.745038874049
aF5610.966271903642
aF0.0
aF13033.669077817121
aF9976.224298467727
aF0.0
aF1830.0231163625822
aF0.0
aF5733.333699628347
aa(lp116
F4711.6510064631575
aF10812.103064733343
aF6687.256837761107
aF0.0
aF14958.486345819992
aF13082.812400262792
aF6146.080553510997
aF13033.669077817121
aF14276.681800992494
aF10927.650459298531
aF12977.346163130098
aF2004.551256041629
aF11734.255720932364
aF6280.118084923001
aa(lp117
F0.0
aF8275.794380533345
aF0.0
aF7083.71312390432
aF11449.516944192665
aF0.0
aF0.0
aF9976.224298467727
aF10927.650459298531
aF8364.236607998499
aF9933.113642005112
aF1534.3225939411175
aF8981.627993520086
aF0.0
aa(lp118
F4282.83875504475
aF9828.082335821908
aF6078.642647856141
aF0.0
aF13597.098968239663
aF11892.132056462753
aF5586.719379278291
aF0.0
aF0.0
aF9933.113642005112
aF11796.264411104248
aF0.0
aF0.0
aF5708.558015750813
aa(lp119
F0.0
aF0.0
aF938.940103902512
aF1299.4253515748421
aF2100.2816348341184
aF0.0
aF0.0
aF0.0
aF2004.551256041629
aF1534.3225939411175
aF1822.114964387664
aF281.45375754040623
aF1647.5759123855678
aF881.7748248999284
aa(lp120
F3872.5887813639947
aF8886.657558890021
aF0.0
aF7606.584925022733
aF12294.642860760863
aF10752.99347520628
aF5051.571639800358
aF10712.601714670323
aF11734.255720932364
aF0.0
aF10666.308921071757
aF0.0
aF0.0
aF5161.7394429156175
aa(lp121
F2072.5911740554384
aF4756.097035668532
aF2941.63330042342
aF4071.0082248269155
aF6580.034627999294
aF5754.951178559818
aF2703.577215877621
aF5733.333699628347
aF0.0
aF4806.924762474358
aF5708.558015750813
aF881.7748248999284
aF0.0
aF0.0
aaa(lp122
(lp123
F1537.2977098852791
aF3527.7275964747637
aF2181.8900865116966
aF3019.5784384745975
aF4880.592126037191
aF4268.605105555155
aF0.0
aF0.0
aF0.0
aF3565.4279152811882
aF4234.194024472981
aF654.0365682927946
aF0.0
aF0.0
aa(lp124
F3527.7275964747637
aF0.0
aF5006.911687415718
aF6929.2044856568045
aF0.0
aF9795.419542024641
aF4601.719853409345
aF0.0
aF10689.298572063935
aF8181.7974287605975
aF9716.454407569863
aF0.0
aF8785.722387766295
aF0.0
aa(lp125
F2181.8900865116966
aF5006.911687415718
aF0.0
aF0.0
aF6927.0353475659995
aF6058.440797221402
aF0.0
aF0.0
aF6611.302587381278
aF0.0
aF6009.601072686232
aF928.2755678343339
aF0.0
aF2908.222059065924
aa(lp126
F0.0
aF6929.2044856568045
aF4285.694448113015
aF0.0
aF0.0
aF8384.444897181822
aF3938.8682003510653
aF8352.950179799656
aF9149.565721252386
aF0.0
aF8316.854242611675
aF1284.666403190192
aF0.0
aF0.0
aa(lp127
F4880.592126037191
aF11199.782201876618
aF6927.0353475659995
aF9586.517078640914
aF15494.8383436503
aF0.0
aF0.0
aF13501.004761878481
aF14788.586991753302
aF0.0
aF0.0
aF2076.4265144117126
aF12154.999595243718
aF6505.298213686496
aa(lp128
F0.0
aF0.0
aF0.0
aF0.0
aF0.0
aF11852.609569379558
aF5568.152393690119
aF11808.087291136158
aF12934.217059478098
aF9900.101785615681
aF0.0
aF1816.0593206391595
aF10630.860352677382
aF5689.586109841092
aa(lp129
F2005.3173604586211
aF0.0
aF2846.151425946625
aF3938.8682003510653
aF6366.454627965583
aF0.0
aF2615.8223552267054
aF5547.236592091967
aF6076.273014703759
aF0.0
aF5523.265097077039
aF853.1534759589254
aF4994.1955966111
aF2672.8698293127104
aa(lp130
F4252.570828621602
aF9758.624742380898
aF0.0
aF8352.950179799656
aF13501.004761878481
aF11808.087291136158
aF5547.236592091967
aF0.0
aF12885.631909734342
aF9862.91376522599
aF0.0
aF1809.2376078419293
aF0.0
aF5668.214163487056
aa(lp131
F4658.135801509988
aF10689.298572063935
aF6611.302587381278
aF0.0
aF14788.586991753302
aF12934.217059478098
aF6076.273014703759
aF12885.631909734342
aF14114.526422424922
aF10803.533572631039
aF12829.948713973636
aF1981.783446804686
aF11600.97736499785
aF6208.788140072725
aa(lp132
F0.0
aF8181.7974287605975
aF0.0
aF7003.255900070213
aF11319.472667771774
aF0.0
aF0.0
aF9862.91376522599
aF10803.533572631039
aF8269.235124285075
aF9820.292762095742
aF1516.8956690762652
aF8879.614142700697
aF0.0
aa(lp133
F4234.194024472981
aF9716.454407569863
aF6009.601072686232
aF0.0
aF13442.662330836822
aF11757.060531967669
aF5523.265097077039
aF0.0
aF0.0
aF9820.292762095742
aF11662.281756876233
aF0.0
aF0.0
aF5643.719883261605
aa(lp134
F0.0
aF0.0
aF928.2755678343339
aF1284.666403190192
aF2076.4265144117126
aF0.0
aF0.0
aF0.0
aF1981.783446804686
aF1516.8956690762652
aF1801.419277115053
aF278.2569894650641
aF1628.8626497720436
aF871.7595753807395
aa(lp135
F3828.603693748261
aF8785.722387766295
aF0.0
aF7520.18889299534
aF12154.999595243718
aF10630.860352677382
aF4994.1955966111
aF10590.927364096424
aF11600.97736499785
aF0.0
aF10545.16036672807
aF0.0
aF0.0
aF5103.11210743946
aa(lp136
F2049.0505634899355
aF4702.077010142059
aF2908.222059065924
aF4024.769477683121
aF6505.298213686496
aF5689.586109841092
aF2672.8698293127104
aF5668.214163487056
aF0.0
aF4752.327432683715
aF5643.719883261605
aF871.7595753807395
aF0.0
aF0.0
aaa(lp137
(lp138
F1485.5173553761806
aF3408.9041672961534
aF2108.3981132569556
aF2917.870850538418
aF4716.2005518642345
aF4124.826913339226
aF0.0
aF0.0
aF0.0
aF3445.3346371589737
aF4091.574890756924
aF632.006843568465
aF0.0
aF0.0
aa(lp139
F3408.9041672961534
aF0.0
aF4838.26532796106
aF6695.810093389012
aF0.0
aF9465.483256300755
aF4446.721453405956
aF0.0
aF10329.254017287116
aF7906.212310368357
aF9389.177881650232
aF0.0
aF8489.795439503938
aF0.0
aa(lp140
F2108.3981132569556
aF4838.26532796106
aF0.0
aF0.0
aF6693.714017749675
aF5854.37608663524
aF0.0
aF0.0
aF6388.615992884842
aF0.0
aF5807.181416427736
aF897.0087301388667
aF0.0
aF2810.265255877261
aa(lp141
F0.0
aF6695.810093389012
aF4141.340640510239
aF0.0
aF0.0
aF8102.034062672432
aF3806.1964410247515
aF8071.60017275441
aF8841.38354313277
aF0.0
aF8036.720044587618
aF1241.395355978341
aF0.0
aF0.0
aa(lp142
F4716.2005518642345
aF10822.543174517928
aF6693.714017749675
aF9263.617194221912
aF14972.930181466634
aF0.0
aF0.0
aF13046.254320045544
aF14290.467289760918
aF0.0
aF0.0
aF2006.4868401788317
aF11745.586256465873
aF6286.1821338757545
aa(lp143
F0.0
aF0.0
aF0.0
aF0.0
aF0.0
aF11453.381546457305
aF5380.601925715067
aF11410.358899245795
aF12498.557564033077
aF9566.639518132311
aF0.0
aF1754.889519352416
aF10272.784155556505
aF5497.945425097211
aa(lp144
F1937.7728353090029
aF0.0
aF2750.2853299559592
aF3806.1964410247515
aF6152.0151765292385
aF0.0
aF2527.714366763904
aF5360.390625017834
aF5871.607666689347
aF0.0
aF5337.226554942138
aF824.4169539750869
aF4825.97754956828
aF2582.840327266022
aa(lp145
F4109.332714321991
aF9429.927805260339
aF0.0
aF8071.60017275441
aF13046.254320045544
aF11410.358899245795
aF5360.390625017834
aF0.0
aF12451.608893847855
aF9530.704091086698
aF0.0
aF1748.2975803359757
aF0.0
aF5477.293343836088
aa(lp146
F4501.237159429977
aF10329.254017287116
aF6388.615992884842
aF0.0
aF14290.467289760918
aF12498.557564033077
aF5871.607666689347
aF12451.608893847855
aF13639.110907797154
aF10439.641273342093
aF12397.801259078458
aF1915.0316076677711
aF11210.224996898347
aF5999.659323385134
aa(lp147
F0.0
aF7906.212310368357
aF0.0
aF6767.367255410336
aF10938.202141038852
aF0.0
aF0.0
aF9530.704091086698
aF10439.641273342093
aF7990.704867262494
aF9489.518678888138
aF1465.802510611893
aF8580.524665590008
aF0.0
aa(lp148
F4091.574890756924
aF9389.177881650232
aF5807.181416427736
aF0.0
aF12989.877020248687
aF11361.05085966051
aF5337.226554942138
aF0.0
aF0.0
aF9489.518678888138
aF11269.46449066102
aF0.0
aF0.0
aF5453.62409737304
aa(lp149
F0.0
aF0.0
aF897.0087301388667
aF1241.395355978341
aF2006.4868401788317
aF0.0
aF0.0
aF0.0
aF1915.0316076677711
aF1465.802510611893
aF1740.742592183608
aF268.88453970046345
aF1573.998139853454
aF842.3963495269234
aa(lp150
F3699.645941933277
aF8489.795439503938
aF0.0
aF7266.888543719635
aF11745.586256465873
aF10272.784155556505
aF4825.97754956828
aF10234.196218289962
aF11210.224996898347
aF0.0
aF10189.970777468081
aF0.0
aF0.0
aF4931.2254570374325
aa(lp151
F1980.0329855007672
aF4543.698309029959
aF2810.265255877261
aF3889.2043304564436
aF6286.1821338757545
aF5497.945425097211
aF2582.840327266022
aF5477.293343836088
aF0.0
aF4592.256161110664
aF5453.62409737304
aF842.3963495269234
aF0.0
aF0.0
aaa(lp152
(lp153
F1403.1467065850295
aF3219.8833881643354
aF1991.4892667392821
aF2756.0774428896907
aF4454.691322180502
aF3896.1088389435795
aF0.0
aF0.0
aF0.0
aF3254.293820073707
aF3864.7006121700642
aF596.9626123066909
aF0.0
aF0.0
aa(lp154
F3219.8833881643354
aF0.0
aF4569.9877123239385
aF6324.5332317766315
aF0.0
aF8940.630420269208
aF4200.15460598072
aF0.0
aF9756.505841809161
aF7467.819695749114
aF8868.556112454402
aF0.0
aF8019.043646584622
aF0.0
aa(lp155
F1991.4892667392821
aF4569.9877123239385
aF0.0
aF0.0
aF6322.553381713323
aF5529.756010822373
aF0.0
aF0.0
aF6034.372777679733
aF0.0
aF5485.17824414037
aF847.2703741341638
aF0.0
aF2654.4384851134682
aa(lp156
F0.0
aF6324.5332317766315
aF3911.7068942672636
aF0.0
aF0.0
aF7652.783301747236
aF3595.146149933143
aF7624.036944626265
aF8351.136494841077
aF0.0
aF7591.090889310672
aF1172.5610602979893
aF0.0
aF0.0
aa(lp157
F4454.691322180502
aF10222.442543159408
aF6322.553381713323
aF8749.957656230386
aF14142.694190693106
aF0.0
aF0.0
aF12322.850834554538
aF13498.073274351893
aF0.0
aF0.0
aF1895.2288853536697
aF11094.303686877502
aF5937.618787299729
aa(lp158
F0.0
aF0.0
aF0.0
aF0.0
aF0.0
aF10818.30147457529
aF5082.252216165001
aF10777.66439583304
aF11805.523388580952
aF9036.177655126965
aF0.0
aF1657.5824177270401
aF9703.16718492854
aF5193.089120292266
aa(lp159
F1830.3250124501099
aF0.0
aF2597.7843940568364
aF3595.146149933143
aF5810.891271359246
aF0.0
aF2387.5547977117258
aF5063.161614559784
aF5546.032114709463
aF0.0
aF5041.281972076854
aF778.7037489912541
aF4558.381280584398
aF2439.624071521251
aa(lp160
F3881.473779821904
aF8907.046488147545
aF0.0
aF7624.036944626265
aF12322.850834554538
aF10777.66439583304
aF5063.161614559784
aF0.0
aF11761.17798143338
aF9002.234816339997
aF0.0
aF1651.355996011095
aF0.0
aF5173.582179023085
aa(lp161
F4251.647463393612
aF9756.505841809161
aF6034.372777679733
aF0.0
aF13498.073274351893
aF11805.523388580952
aF5546.032114709463
aF11761.17798143338
aF12882.834038769783
aF9860.772220267781
aF11710.353933338236
aF1808.8447661554349
aF10588.627744771014
aF5666.983418115777
aa(lp162
F0.0
aF7467.819695749114
aF0.0
aF6392.122611233843
aF10331.688320311412
aF0.0
aF0.0
aF9002.234816339997
aF9860.772220267781
aF7547.627213653834
aF8963.333099522879
aF1384.5250328619109
aF8104.742015784383
aF0.0
aa(lp163
F3864.7006121700642
aF8868.556112454402
aF5485.17824414037
aF0.0
aF12269.599607128734
aF10731.09044427208
aF5041.281972076854
aF0.0
aF0.0
aF8963.333099522879
aF10644.582459989948
aF0.0
aF0.0
aF5151.225371745282
aa(lp164
F0.0
aF0.0
aF847.2703741341638
aF1172.5610602979893
aF1895.2288853536697
aF0.0
aF0.0
aF0.0
aF1808.8447661554349
aF1384.5250328619109
aF1644.2199253984434
aF253.975125209356
aF1486.721308312861
aF795.6862026553922
aa(lp165
F3494.5037835924727
aF8019.043646584622
aF0.0
aF6863.945877400135
aF11094.303686877502
aF9703.16718492854
aF4558.381280584398
aF9666.718915311556
aF10588.627744771014
aF0.0
aF9624.945736821306
aF0.0
aF0.0
aF4657.793282878313
aa(lp166
F1870.2418739709549
aF4291.75417907984
aF2654.4384851134682
aF3673.5513238983835
aF5937.618787299729
aF5193.089120292266
aF2439.624071521251
aF5173.582179023085
aF0.0
aF4337.619540382623
aF5151.225371745282
aF795.6862026553922
aF0.0
aF0.0
aaa(lp167
(lp168
F1295.7991871030101
aF2973.546712805539
aF1839.1306916478525
aF2545.2241688834306
aF4113.885858824503
aF3598.037641163792
aF0.0
aF0.0
aF0.0
aF3005.3245799998735
aF3569.0322958706256
aF551.2920809546321
aF0.0
aF0.0
aa(lp169
F2973.546712805539
aF0.0
aF4220.361516660303
aF5840.675805374528
aF0.0
aF8256.628887345236
aF3878.822434314687
aF0.0
aF9010.085887277788
aF6896.495317111123
aF8190.068613184925
aF0.0
aF7405.547965741686
aF0.0
aa(lp170
F1839.1306916478525
aF4220.361516660303
aF0.0
aF0.0
aF5838.847423430871
aF5106.702891489412
aF0.0
aF0.0
aF5572.71403146759
aF0.0
aF5065.535539880118
aF782.4500865854268
aF0.0
aF2451.361083686184
aa(lp171
F0.0
aF5840.675805374528
aF3612.442369702841
aF0.0
aF0.0
aF7067.308311341305
aF3320.1000556370386
aF7040.761189778953
aF7712.23410254684
aF0.0
aF7010.335667275965
aF1082.8544596457018
aF0.0
aF0.0
aa(lp172
F4113.885858824503
aF9440.376174114961
aF5838.847423430871
aF8080.543513317943
aF13060.709582071093
aF0.0
aF0.0
aF11380.0930574609
aF12465.405288183329
aF0.0
aF0.0
aF1750.234695695099
aF10245.535717300721
aF5483.362189999412
aa(lp173
F0.0
aF0.0
aF0.0
aF0.0
aF0.0
aF9990.649011112835
aF4693.435304699551
aF9953.120865728377
aF10902.343666885663
aF8344.866295933785
aF0.0
aF1530.769333931213
aF8960.827896005234
aF4795.792648799849
aa(lp174
F1690.296283443854
aF0.0
aF2399.04130501107
aF3320.1000556370386
aF5366.329942859038
aF0.0
aF2204.8952910764397
aF4675.805226586369
aF5121.733794592498
aF0.0
aF4655.59948273191
aF719.1291403824325
aF4209.643033166965
aF2252.981013231351
aa(lp175
F3584.522234952829
aF8225.614288701528
aF0.0
aF7040.761189778953
aF11380.0930574609
aF9953.120865728377
aF4675.805226586369
aF0.0
aF10861.390898180936
aF8313.520248723107
aF0.0
aF1525.0192636354855
aF0.0
aF4777.778083023623
aa(lp176
F3926.375838719299
aF9010.085887277788
aF5572.71403146759
aF0.0
aF12465.405288183329
aF10902.343666885663
aF5121.733794592498
aF10861.390898180936
aF11897.234834160414
aF9106.375382748778
aF10814.455135941751
aF1670.459380034691
aF9778.546434110305
aF5233.431737435835
aa(lp177
F0.0
aF6896.495317111123
aF0.0
aF5903.094269920268
aF9541.264120160557
aF0.0
aF0.0
aF8313.520248723107
aF9106.375382748778
aF6970.197173332084
aF8277.594701670927
aF1278.6021616175983
aF7484.689994600073
aF0.0
aa(lp178
F3569.0322958706256
aF8190.068613184925
aF5065.535539880118
aF0.0
aF11330.91580686639
aF9910.110047052296
aF4655.59948273191
aF0.0
aF0.0
aF8277.594701670927
aF9830.220342586876
aF0.0
aF0.0
aF4757.1316797923455
aa(lp179
F0.0
aF0.0
aF782.4500865854268
aF1082.8544596457018
aF1750.234695695099
aF0.0
aF0.0
aF0.0
aF1670.459380034691
aF1278.6021616175983
aF1518.4291369897205
aF234.54479795033856
aF1372.9799269879734
aF734.8123540832738
aa(lp180
F3227.1573178033295
aF7405.547965741686
aF0.0
aF6338.820770852279
aF10245.535717300721
aF8960.827896005234
aF4209.643033166965
aF8927.168095558605
aF9778.546434110305
aF0.0
aF8888.5907675598
aF0.0
aF0.0
aF4301.449535763016
aa(lp181
F1727.1593117128657
aF3963.414196390444
aF2451.361083686184
aF3392.50685402243
aF5483.362189999412
aF4795.792648799849
aF2252.981013231351
aF4777.778083023623
aF0.0
aF4005.7706353952995
aF4757.1316797923455
aF734.8123540832738
aF0.0
aF0.0
aaa(lp182
(lp183
F1170.7903529826574
aF2686.6815785548583
aF1661.7053730906962
aF2299.680330691651
aF3717.009490916291
aF3250.926379542609
aF0.0
aF0.0
aF0.0
aF2715.393759207379
aF3224.7192489994172
aF498.10762074980937
aF0.0
aF0.0
aa(lp184
F2686.6815785548583
aF0.0
aF3813.2131884200207
aF5277.211898179794
aF0.0
aF7460.092231631621
aF3504.6231948803743
aF0.0
aF8140.861440077004
aF6231.173986700381
aF7399.9531856633985
aF0.0
aF6691.11711377502
aF0.0
aa(lp185
F1661.7053730906962
aF3813.2131884200207
aF0.0
aF0.0
aF5275.559904597372
aF4614.047099590558
aF0.0
aF0.0
aF5035.101034875615
aF0.0
aF4576.8512604499565
aF706.9652629685114
aF0.0
aF2214.872440901402
aa(lp186
F0.0
aF5277.211898179794
aF3263.941449608023
aF0.0
aF0.0
aF6385.50824450763
aF2999.8020949275524
aF6361.522186996553
aF6968.21650844878
aF0.0
aF6334.031887121774
aF978.3889106087641
aF0.0
aF0.0
aa(lp187
F3717.009490916291
aF8529.640598009177
aF5275.559904597372
aF7300.994233064881
aF11800.711818614067
aF0.0
aF0.0
aF10282.22837329266
aF11262.83794794807
aF0.0
aF0.0
aF1581.3853856141216
aF9257.124482206793
aF4954.369178386295
aa(lp188
F0.0
aF0.0
aF0.0
aF0.0
aF0.0
aF9026.827303694534
aF4240.648421284759
aF8992.919587885817
aF9850.568604405675
aF7539.817167235745
aF0.0
aF1383.0923700570897
aF8096.355484553029
aF4333.1311085887055
aa(lp189
F1527.2293747635943
aF0.0
aF2167.6000758986443
aF2999.8020949275524
aF4848.627310893567
aF0.0
aF1992.183790376131
aF4224.719158801279
aF4627.627935668294
aF0.0
aF4206.462711185713
aF649.7530392736171
aF3803.5287425602733
aF2035.63056837654
aa(lp190
F3238.7148367619607
aF7432.069685194575
aF0.0
aF6361.522186996553
aF10282.22837329266
aF8992.919587885817
aF4224.719158801279
aF0.0
aF9813.566646845708
aF7511.495147864479
aF0.0
aF1377.8970227392226
aF0.0
aF4316.854450882869
aa(lp191
F3547.589009091814
aF8140.861440077004
aF5035.101034875615
aF0.0
aF11262.83794794807
aF9850.568604405675
aF4627.627935668294
aF9813.566646845708
aF10749.480250983468
aF8227.861658562279
aF9771.158889388798
aF1509.3061846770038
aF8835.186767515079
aF4728.550111905616
aa(lp192
F0.0
aF6231.173986700381
aF0.0
aF5333.608704772584
aF8620.795643588803
aF0.0
aF0.0
aF7511.495147864479
aF8227.861658562279
aF6297.765649296906
aF7479.035423909603
aF1155.2523655084328
aF6762.62412259637
aF0.0
aa(lp193
F3224.7192489994172
aF7399.9531856633985
aF4576.8512604499565
aF0.0
aF10237.795369201198
aF8954.058125337424
aF4206.462711185713
aF0.0
aF0.0
aF7479.035423909603
aF8881.875570955784
aF0.0
aF0.0
aF4298.199855350198
aa(lp194
F0.0
aF0.0
aF706.9652629685114
aF978.3889106087641
aF1581.3853856141216
aF0.0
aF0.0
aF0.0
aF1509.3061846770038
aF1155.2523655084328
aF1371.9426613083858
aF211.91770261597895
aF1240.525283049561
aF663.9232559919664
aa(lp195
F2915.825764398451
aF6691.11711377502
aF0.0
aF5727.299632277027
aF9257.124482206793
aF8096.355484553029
aF3803.5287425602733
aF8065.9429252317495
aF8835.186767515079
aF0.0
aF8031.087243954603
aF0.0
aF0.0
aF3886.4784531715577
aa(lp196
F1560.5361388892727
aF3581.0541881745744
aF2214.872440901402
aF3065.223637002681
aF4954.369178386295
aF4333.1311085887055
aF2035.63056837654
aF4316.854450882869
aF0.0
aF3619.324400617331
aF4298.199855350198
aF663.9232559919664
aF0.0
aF0.0
aaa(lp197
(lp198
F1036.6393496824078
aF2378.8373702444305
aF1471.3045533182817
aF2036.1793351067438
aF3291.108687059602
aF2878.4301129310334
aF0.0
aF0.0
aF0.0
aF2404.2596639998983
aF2855.2258366964998
aF441.03366476370553
aF0.0
aF0.0
aa(lp199
F2378.8373702444305
aF0.0
aF3376.289213328242
aF4672.540644299621
aF0.0
aF6605.303109876187
aF3103.057947451749
aF0.0
aF7208.068709822229
aF5517.196253688897
aF6552.054890547938
aF0.0
aF5924.438372593348
aF0.0
aa(lp200
F1471.3045533182817
aF3376.289213328242
aF0.0
aF0.0
aF4671.0779387446955
aF4085.3623131915288
aF0.0
aF0.0
aF4458.171225174071
aF0.0
aF4052.428431904094
aF625.9600692683414
aF0.0
aF1961.0888669489466
aa(lp201
F0.0
aF4672.540644299621
aF2889.953895762272
aF0.0
aF0.0
aF5653.8466490730425
aF2656.08004450963
aF5632.608951823161
aF6169.787282037471
aF0.0
aF5608.26853382077
aF866.2835677165614
aF0.0
aF0.0
aa(lp202
F3291.108687059602
aF7552.300939291968
aF4671.0779387446955
aF6464.434810654353
aF10448.567665656872
aF0.0
aF0.0
aF9104.074445968718
aF9972.324230546661
aF0.0
aF0.0
aF1400.187756556079
aF8196.428573840574
aF4386.689751999529
aa(lp203
F0.0
aF0.0
aF0.0
aF0.0
aF0.0
aF7992.519208890267
aF3754.7482437596404
aF7962.4966925827
aF8721.874933508529
aF6675.8930367470275
aF0.0
aF1224.6154671449701
aF7168.662316804186
aF3836.634119039879
aa(lp204
F1352.237026755083
aF0.0
aF1919.2330440088558
aF2656.08004450963
aF4293.0639542872295
aF0.0
aF1763.9162328611515
aF3740.6441812690946
aF4097.387035673998
aF0.0
aF3724.4795861855273
aF575.303312305946
aF3367.714426533572
aF1802.3848105850805
aa(lp205
F2867.617787962263
aF6580.491430961222
aF0.0
aF5632.608951823161
aF9104.074445968718
aF7962.4966925827
aF3740.6441812690946
aF0.0
aF8689.112718544748
aF6650.816198978484
aF0.0
aF1220.0154109083883
aF0.0
aF3822.222466418898
aa(lp206
F3141.1006709754383
aF7208.068709822229
aF4458.171225174071
aF0.0
aF9972.324230546661
aF8721.874933508529
aF4097.387035673998
aF8689.112718544748
aF9517.787867328329
aF7285.10030619902
aF8651.564108753399
aF1336.3675040277526
aF7822.837147288244
aF4186.745389948667
aa(lp207
F0.0
aF5517.196253688897
aF0.0
aF4722.475415936214
aF7633.011296128443
aF0.0
aF0.0
aF6650.816198978484
aF7285.10030619902
aF5576.157738665666
aF6622.0757613367405
aF1022.8817292940784
aF5987.751995680057
aF0.0
aa(lp208
F2855.2258366964998
aF6552.054890547938
aF4052.428431904094
aF0.0
aF9064.73264549311
aF7928.088037641835
aF3724.4795861855273
aF0.0
aF0.0
aF6622.0757613367405
aF7864.1762740694985
aF0.0
aF0.0
aF3805.7053438338753
aa(lp209
F0.0
aF0.0
aF625.9600692683414
aF866.2835677165614
aF1400.187756556079
aF0.0
aF0.0
aF0.0
aF1336.3675040277526
aF1022.8817292940784
aF1214.743309591776
aF187.6358383602708
aF1098.3839415903785
aF587.8498832666189
aa(lp210
F2581.725854242663
aF5924.438372593348
aF0.0
aF5071.056616681822
aF8196.428573840574
aF7168.662316804186
aF3367.714426533572
aF7141.734476446883
aF7822.837147288244
aF0.0
aF7110.872614047838
aF0.0
aF0.0
aF3441.159628610412
aa(lp211
F1381.727449370292
aF3170.7313571123545
aF1961.0888669489466
aF2714.0054832179435
aF4386.689751999529
aF3836.634119039879
aF1802.3848105850805
aF3822.222466418898
aF0.0
aF3204.616508316239
aF3805.7053438338753
aF587.8498832666189
aF0.0
aF0.0
aaa(lp212
(lp213
F1103.7148513325326
aF2532.759474399644
aF1566.5049632044886
aF2167.929832899197
aF3504.059088987946
aF3064.6782462368205
aF0.0
aF0.0
aF0.0
aF2559.826711603638
aF3039.9725428479583
aF469.5706427567574
aF0.0
aF0.0
aa(lp214
F2532.759474399644
aF0.0
aF3594.751200874131
aF4974.876271239707
aF0.0
aF7032.697670753903
aF3303.8405711660616
aF0.0
aF7674.465074949615
aF5874.185120194638
aF6976.004038105668
aF0.0
aF6307.777743184183
aF0.0
aa(lp215
F1566.5049632044886
aF3594.751200874131
aF0.0
aF0.0
aF4973.318921671033
aF4349.704706391043
aF0.0
aF0.0
aF4746.636130024843
aF0.0
aF4314.639846177025
aF666.4626661184262
aF0.0
aF2087.9806539251745
aa(lp216
F0.0
aF4974.876271239707
aF3076.947672685147
aF0.0
aF0.0
aF6019.677446790335
aF2827.941069718591
aF5997.065569409856
aF6569.001895243125
aF0.0
aF5971.150210471272
aF922.3362391626627
aF0.0
aF0.0
aa(lp217
F3504.059088987946
aF8040.970768650572
aF4973.318921671033
aF6882.714521859616
aF11124.639742135469
aF0.0
aF0.0
aF9693.15140963069
aF10617.581089247366
aF0.0
aF0.0
aF1490.7865710851001
aF8726.776528023684
aF4670.529465192912
aa(lp218
F0.0
aF0.0
aF0.0
aF0.0
aF0.0
aF8509.673256292399
aF3997.6983325221995
aF8477.708140234257
aF9286.2217689571
aF7107.855101991385
aF0.0
aF1303.8539186010298
aF7632.508900678607
aF4084.8826138142917
aa(lp219
F1439.7332007593384
aF0.0
aF2043.4165599537496
aF2827.941069718591
aF4570.845632590397
aF0.0
aF1878.0500116186408
aF3982.6816700351865
aF4362.507485671145
aF0.0
aF3965.4711486856195
aF612.5281757897815
aF3585.621584546922
aF1919.0076894808099
aa(lp220
F3053.1663123621115
aF7006.280558077898
aF0.0
aF5997.065569409856
aF9693.15140963069
aF8477.708140234257
aF3982.6816700351865
aF0.0
aF9251.339682695227
aF7081.155673421481
aF0.0
aF1298.956216823805
aF0.0
aF4069.538458650883
aa(lp221
F3344.344840033626
aF7674.465074949615
aF4746.636130024843
aF0.0
aF10617.581089247366
aF9286.2217689571
aF4362.507485671145
aF9251.339682695227
aF10133.634059155896
aF7756.480982380648
aF9211.361499071098
aF1422.836844352378
aF8329.01195740166
aF4457.647750927141
aa(lp222
F0.0
aF5874.185120194638
aF0.0
aF5028.042060354398
aF8126.903469858622
aF0.0
aF0.0
aF7081.155673421481
aF7756.480982380648
aF5936.961693981286
aF7050.555592623171
aF1089.0670474012554
aF6375.188059138213
aF0.0
aa(lp223
F3039.9725428479583
aF6976.004038105668
aF4314.639846177025
aF0.0
aF9651.264007347152
aF8441.073081489629
aF3965.4711486856195
aF0.0
aF0.0
aF7050.555592623171
aF8373.025922512641
aF0.0
aF0.0
aF4051.952599592036
aa(lp224
F0.0
aF0.0
aF666.4626661184262
aF922.3362391626627
aF1490.7865710851001
aF0.0
aF0.0
aF0.0
aF1422.836844352378
aF1089.0670474012554
aF1293.3429854500807
aF199.77677048812487
aF1169.4546123199696
aF625.8865696292926
aa(lp225
F2748.7758093205566
aF6307.777743184183
aF0.0
aF5399.178124479424
aF8726.776528023684
aF7632.508900678607
aF3585.621584546922
aF7603.838700839315
aF8329.01195740166
aF0.0
aF7570.97992900122
aF0.0
aF0.0
aF3663.819040890984
aa(lp226
F1471.1317941297823
aF3375.892772643464
aF2087.9806539251745
aF2889.6145601103117
aF4670.529465192912
aF4084.8826138142917
aF1919.0076894808099
aF4069.538458650883
aF0.0
aF3411.9704544667848
aF4051.952599592036
aF625.8865696292926
aF0.0
aF0.0
aaa(lp227
(lp228
F1166.219268392709
aF2676.1920415249842
aF1655.2176224830669
aF2290.701751995087
aF3702.497272942052
aF3238.2338770474125
aF0.0
aF0.0
aF0.0
aF2704.7921219998857
aF3212.129066283562
aF496.1628728591687
aF0.0
aF0.0
aa(lp229
F2676.1920415249842
aF0.0
aF3798.325364994272
aF5256.608224837074
aF0.0
aF7430.965998610711
aF3490.940190883218
aF0.0
aF8109.077298550007
aF6206.845785400009
aF7371.06175186643
aF0.0
aF6664.9931691675165
aF0.0
aa(lp230
F1655.2176224830669
aF3798.325364994272
aF0.0
aF0.0
aF5254.962681087783
aF4596.03260234047
aF0.0
aF0.0
aF5015.4426283208295
aF0.0
aF4558.9819858921055
aF704.205077926884
aF0.0
aF2206.224975317565
aa(lp231
F0.0
aF5256.608224837074
aF3251.198132732556
aF0.0
aF0.0
aF6360.577480207173
aF2988.090050073334
aF6336.685070801056
aF6941.010692292155
aF0.0
aF6309.302100548367
aF974.5690136811315
aF0.0
aF0.0
aa(lp232
F3702.497272942052
aF8496.338556703464
aF5254.962681087783
aF7272.489161986146
aF11754.63862386398
aF0.0
aF0.0
aF10242.083751714808
aF11218.864759364993
aF0.0
aF0.0
aF1575.2112261255886
aF9220.982145570646
aF4935.02597099947
aa(lp233
F0.0
aF0.0
aF0.0
aF0.0
aF0.0
aF8991.58411000155
aF4224.091774229595
aF8957.808779155537
aF9812.109300197095
aF7510.3796663404055
aF0.0
aF1377.6924005380915
aF8064.745106404709
aF4316.213383919863
aa(lp234
F1521.2666550994684
aF0.0
aF2159.1371745099627
aF2988.090050073334
aF4829.696948573133
aF0.0
aF1984.4057619687953
aF4208.224703927732
aF4609.560415133247
aF0.0
aF4190.039534458719
aF647.2162263441892
aF3788.678729850268
aF2027.6829119082156
aa(lp235
F3226.0700114575457
aF7403.052859831375
aF0.0
aF6336.685070801056
aF10242.083751714808
aF8957.808779155537
aF4208.224703927732
aF0.0
aF9775.25180836284
aF7482.168223850795
aF0.0
aF1372.5173372719366
aF0.0
aF4300.00027472126
aa(lp236
F3533.7382548473684
aF8109.077298550007
aF5015.4426283208295
aF0.0
aF11218.864759364993
aF9812.109300197095
aF4609.560415133247
aF9775.25180836284
aF10707.51135074437
aF8195.737844473899
aF9733.009622347574
aF1503.4134420312216
aF8800.691790699273
aF4710.088563692251
aa(lp237
F0.0
aF6206.845785400009
aF0.0
aF5312.78484292824
aF8587.137708144499
aF0.0
aF0.0
aF7482.168223850795
aF8195.737844473899
aF6273.177455998874
aF7449.835231503833
aF1150.7419454558383
aF6736.220995140065
aF0.0
aa(lp238
F3212.129066283562
aF7371.06175186643
aF4558.9819858921055
aF0.0
aF10197.824226179748
aF8919.099042347065
aF4190.039534458719
aF0.0
aF0.0
aF7449.835231503833
aF8847.198308328187
aF0.0
aF0.0
aF4281.41851181311
aa(lp239
F0.0
aF0.0
aF704.205077926884
aF974.5690136811315
aF1575.2112261255886
aF0.0
aF0.0
aF0.0
aF1503.4134420312216
aF1150.7419454558383
aF1366.5862232907482
aF211.09031815530466
aF1235.6819342891758
aF661.3311186749463
aa(lp240
F2904.441586022996
aF6664.9931691675165
aF0.0
aF5704.93869376705
aF9220.982145570646
aF8064.745106404709
aF3788.678729850268
aF8034.451286002743
aF8800.691790699273
aF0.0
aF7999.731690803817
aF0.0
aF0.0
aF3871.304582186713
aa(lp241
F1554.4433805415788
aF3567.0727767513986
aF2206.224975317565
aF3053.2561686201866
aF4935.02597099947
aF4316.213383919863
aF2027.6829119082156
aF4300.00027472126
aF0.0
aF3605.193571855769
aF4281.41851181311
aF661.3311186749463
aF0.0
aF0.0
aaa(lp242
(lp243
F1219.8930281337186
aF2799.360379204383
aF1731.396910028782
aF2396.1283889982174
aF3872.9000046200517
aF3387.269475937306
aF0.0
aF0.0
aF0.0
aF2829.2767420368027
aF3359.963224433282
aF518.9981385351982
aF0.0
aF0.0
aa(lp244
F2799.360379204383
aF0.0
aF3973.1384628260903
aF5498.536938038126
aF0.0
aF7772.966765072698
aF3651.6062767162343
aF0.0
aF8482.287275815695
aF6492.507974719006
aF7710.3055015011705
aF0.0
aF6971.741009588985
aF0.0
aa(lp245
F1731.396910028782
aF3973.1384628260903
aF0.0
aF0.0
aF5496.815660229009
aF4807.559162006951
aF0.0
aF0.0
aF5246.272001426902
aF0.0
aF4768.803338022232
aF736.6152217012526
aF0.0
aF2307.7636760312075
aa(lp246
F0.0
aF5498.536938038126
aF3400.830395014768
aF0.0
aF0.0
aF6653.31497541014
aF3125.613097221387
aF6628.322948224713
aF7260.461888439275
aF0.0
aF6599.679711565721
aF1019.4223140072754
aF0.0
aF0.0
aa(lp247
F3872.9000046200517
aF8887.371741225688
aF5496.815660229009
aF7607.19623344237
aF12295.63092817499
aF0.0
aF0.0
aF10713.462640261629
aF11735.198752449276
aF0.0
aF0.0
aF1647.7083209548744
aF9645.366130359038
aF5162.154269649629
aa(lp248
F0.0
aF0.0
aF0.0
aF0.0
aF0.0
aF9405.410341732779
aF4418.50022996232
aF9370.08054420787
aF10263.69916104474
aF7856.035345936996
aF0.0
aF1441.0989424360052
aF8435.914750866363
aF4514.861619666072
aa(lp249
F1591.2810196025964
aF0.0
aF2258.508719032846
aF3125.613097221387
aF5051.977612823238
aF0.0
aF2075.735515286439
aF4401.902897914439
aF4821.70957519173
aF0.0
aF4382.88077913119
aF677.0035306486001
aF3963.047853558985
aF2121.004441053166
aa(lp250
F3374.5457838920834
aF7743.768959554383
aF0.0
aF6628.322948224713
aF10713.462640261629
aF9370.08054420787
aF4401.902897914439
aF0.0
aF10225.145349989063
aF7826.52550765924
aF0.0
aF1435.6857034597415
aF0.0
aF4497.902322720992
aa(lp251
F3696.3740671845253
aF8482.287275815695
aF5246.272001426902
aF0.0
aF11735.198752449276
aF10263.69916104474
aF4821.70957519173
aF10225.145349989063
aF11200.310953049056
aF8572.936263233401
aF10180.959021045817
aF1572.6061350915936
aF9205.73244602963
aF4926.864404032222
aa(lp252
F0.0
aF6492.507974719006
aF0.0
aF5557.299013585028
aF8982.349808219928
aF0.0
aF0.0
aF7826.52550765924
aF8572.936263233401
aF6561.89247615975
aF7792.70443042981
aF1203.7033810779947
aF7046.24700573222
aF0.0
aa(lp253
F3359.963224433282
aF7710.3055015011705
aF4768.803338022232
aF0.0
aF10667.166126310922
aF9329.589240956957
aF4382.88077913119
aF0.0
aF0.0
aF7792.70443042981
aF9254.379367029724
aF0.0
aF0.0
aF4478.465357789579
aa(lp254
F0.0
aF0.0
aF736.6152217012526
aF1019.4223140072754
aF1647.7083209548744
aF0.0
aF0.0
aF0.0
aF1572.6061350915936
aF1203.7033810779947
aF1429.4816174951097
aF220.80548178481342
aF1292.5526249516197
aF691.7680429610056
aa(lp255
F3038.114818917568
aF6971.741009588985
aF0.0
aF5967.501247040978
aF9645.366130359038
aF8435.914750866363
aF3963.047853558985
aF8404.226695879219
aF9205.73244602963
aF0.0
aF8367.909175434572
aF0.0
aF0.0
aF4049.4764557443623
aa(lp256
F1625.9846616706236
aF3731.242768096097
aF2307.7636760312075
aF3193.7784035581635
aF5162.154269649629
aF4514.861619666072
aF2121.004441053166
aF4497.902322720992
aF0.0
aF3771.118024349431
aF4478.465357789579
aF691.7680429610056
aF0.0
aF0.0
aaa(lp257
(lp258
F1261.078352529294
aF2893.8707687702918
aF1789.8513332876184
aF2477.0250928225805
aF4003.6546194619177
aF3501.628513135129
aF0.0
aF0.0
aF0.0
aF2924.7971505794358
aF3473.4003637267115
aF536.5202541660852
aF0.0
aF0.0
aa(lp259
F2893.8707687702918
aF0.0
aF4107.27727064465
aF5684.175368844316
aF0.0
aF8035.393183088469
aF3774.889700428852
aF0.0
aF8768.661363554671
aF6711.704282028626
aF7970.616386099084
aF0.0
aF7207.116906048642
aF0.0
aa(lp260
F1789.8513332876184
aF4107.27727064465
aF0.0
aF0.0
aF5682.395978247185
aF4969.869199913384
aF0.0
aF0.0
aF5423.393609029456
aF0.0
aF4929.804924165915
aF761.4843997036039
aF0.0
aF2385.6770614131037
aa(lp261
F0.0
aF5684.175368844316
aF3515.647268136255
aF0.0
aF0.0
aF6877.940355872736
aF3231.1382427671906
aF6852.104562288785
aF7505.585412585119
aF0.0
aF6822.494289204194
aF1053.839461847451
aF0.0
aF0.0
aa(lp262
F4003.6546194619177
aF9187.422056904947
aF5682.395978247185
aF7864.026002438131
aF12710.748923561752
aF0.0
aF0.0
aF11075.16438300713
aF12131.395760153788
aF0.0
aF0.0
aF1703.337298367455
aF9971.007415153223
aF5336.435942937641
aa(lp263
F0.0
aF0.0
aF0.0
aF0.0
aF0.0
aF9722.950377673784
aF4567.675084737353
aF9686.427795914247
aF10610.216248770801
aF8121.266277439668
aF0.0
aF1489.752493248693
aF8720.723236180344
aF4667.289772068545
aa(lp264
F1645.0049310320426
aF0.0
aF2334.7591869824073
aF3231.1382427671906
aF5222.539565408233
aF0.0
aF2145.8152998125274
aF4550.517403143464
aF4984.497351181672
aF0.0
aF4530.853070563832
aF699.8601331405164
aF4096.845988050925
aF2192.612568925551
aa(lp265
F3488.4752511421266
aF8005.209618110779
aF0.0
aF6852.104562288785
aF11075.16438300713
aF9686.427795914247
aF4550.517403143464
aF0.0
aF10570.3608061963
aF8090.76014503259
aF0.0
aF1484.1564956221816
aF0.0
aF4649.757905127492
aa(lp266
F3821.168915202707
aF8768.661363554671
aF5423.393609029456
aF0.0
aF12131.395760153788
aF10610.216248770801
aF4984.497351181672
aF10570.3608061963
aF11578.44938756274
aF8862.370789770555
aF10524.682683915928
aF1625.6995558477618
aF9516.531072093294
aF5093.2023566669
aa(lp267
F0.0
aF6711.704282028626
aF0.0
aF5744.921335673274
aF9285.606718583647
aF0.0
aF0.0
aF8090.76014503259
aF8862.370789770555
aF6783.43130296408
aF8055.7972201124385
aF1244.3421199529855
aF7284.138330635032
aF0.0
aa(lp268
F3473.4003637267115
aF7970.616386099084
aF4929.804924165915
aF0.0
aF11027.304832870897
aF9644.569448651171
aF4530.853070563832
aF0.0
aF0.0
aF8055.7972201124385
aF9566.820382365258
aF0.0
aF0.0
aF4629.664720603457
aa(lp269
F0.0
aF0.0
aF761.4843997036039
aF1053.839461847451
aF1703.337298367455
aF0.0
aF0.0
aF0.0
aF1625.6995558477618
aF1244.3421199529855
aF1477.742950887692
aF228.2601890303671
aF1336.1910407219161
aF715.123116396771
aa(lp270
F3140.6858980879697
aF7207.116906048642
aF0.0
aF6168.972580200728
aF9971.007415153223
aF8720.723236180344
aF4096.845988050925
aF8687.965347368421
aF9516.531072093294
aF0.0
aF8650.42169575796
aF0.0
aF0.0
aF4186.192542823921
aa(lp271
F1680.8802174355296
aF3857.214833071156
aF2385.6770614131037
aF3301.604906837193
aF5336.435942937641
aF4667.289772068545
aF2192.612568925551
aF4649.757905127492
aF0.0
aF3898.436334713451
aF4629.664720603457
aF715.123116396771
aF0.0
aF0.0
aaa(lp272
(lp273
F1286.9685297838435
aF2953.282483359597
aF1826.5973199149892
aF2527.8788867906705
aF4085.8504065483958
aF3573.5176092430943
aF0.0
aF0.0
aF0.0
aF2984.843789640543
aF3544.7099305847405
aF547.5351165282501
aF0.0
aF0.0
aa(lp274
F2953.282483359597
aF0.0
aF4191.60045037198
aF5800.872564978213
aF0.0
aF8200.361325950415
aF3852.388900430547
aF0.0
aF8948.683640943082
aF6849.496841224747
aF8134.254649058901
aF0.0
aF7355.080380179821
aF0.0
aa(lp275
F1826.5973199149892
aF4191.60045037198
aF0.0
aF0.0
aF5799.056643155348
aF5071.901555206466
aF0.0
aF0.0
aF5534.736906277674
aF0.0
aF5031.014752295163
aF777.1178185513377
aF0.0
aF2434.655463007435
aa(lp276
F0.0
aF5800.872564978213
aF3587.8241719376433
aF0.0
aF0.0
aF7019.145773127432
aF3297.474122430348
aF6992.779565811409
aF7659.676501644929
aF0.0
aF6962.561388216223
aF1075.4749854533768
aF0.0
aF0.0
aa(lp277
F4085.8504065483958
aF9376.041570584293
aF5799.056643155348
aF8025.475944647634
aF12971.703004653586
aF0.0
aF0.0
aF11302.5396039236
aF12380.455611149982
aF0.0
aF0.0
aF1738.3071354838958
aF10175.714084542147
aF5445.993982843012
aa(lp278
F0.0
aF0.0
aF0.0
aF0.0
aF0.0
aF9922.564389134912
aF4661.45031872488
aF9885.291991859429
aF10828.045996493312
aF8287.997411181355
aF0.0
aF1520.337393892065
aF8899.761334740784
aF4763.110114440486
aa(lp279
F1678.777193606852
aF0.0
aF2382.69223497774
aF3297.474122430348
aF5329.759291126406
aF0.0
aF2189.8692940439287
aF4643.940386680531
aF5086.830025188879
aF0.0
aF4623.872341631283
aF714.2283941324356
aF4180.955011572336
aF2237.6273199488955
aa(lp280
F3560.0943082919325
aF8169.55808667106
aF0.0
aF6992.779565811409
aF11302.5396039236
aF9885.291991859429
aF4643.940386680531
aF0.0
aF10787.372314139544
aF8256.864982102237
aF0.0
aF1514.6265093751588
aF0.0
aF4745.218314952977
aa(lp281
F3899.618236242713
aF8948.683640943082
aF5534.736906277674
aF0.0
aF12380.455611149982
aF10828.045996493312
aF5086.830025188879
aF10787.372314139544
aF11816.157144876626
aF9044.31693941503
aF10740.756411363516
aF1659.0754754162192
aF9711.907256143048
aF5197.766765010696
aa(lp282
F0.0
aF6849.496841224747
aF0.0
aF5862.865658003213
aF9476.241981950108
aF0.0
aF0.0
aF8256.864982102237
aF9044.31693941503
aF6922.69643147537
aF8221.184261716242
aF1269.8886991851718
aF7433.683069190377
aF0.0
aa(lp283
F3544.7099305847405
aF8134.254649058901
aF5031.014752295163
aF0.0
aF11253.697488164966
aF9842.574284804752
aF4623.872341631283
aF0.0
aF0.0
aF8221.184261716242
aF9763.229015472865
aF0.0
aF0.0
aF4724.71261354774
aa(lp284
F0.0
aF0.0
aF777.1178185513377
aF1075.4749854533768
aF1738.3071354838958
aF0.0
aF0.0
aF0.0
aF1659.0754754162192
aF1269.8886991851718
aF1508.0812933534146
aF232.94641391266748
aF1363.623295681211
aF729.8047293236792
aa(lp285
F3205.164773995462
aF7355.080380179821
aF0.0
aF6295.622754838581
aF10175.714084542147
aF8899.761334740784
aF4180.955011572336
aF8866.330920271652
aF9711.907256143048
aF0.0
aF8828.016490387954
aF0.0
aF0.0
aF4272.135868024936
aa(lp286
F1715.3890064301138
aF3936.404183627207
aF2434.655463007435
aF3369.387480450532
aF5445.993982843012
aF4763.110114440486
aF2237.6273199488955
aF4745.218314952977
aF0.0
aF3978.471970499977
aF4724.71261354774
aF729.8047293236792
aF0.0
aF0.0
aaa(lp287
(lp288
F1295.79918710301
aF2973.546712805538
aF1839.130691647852
aF2545.2241688834297
aF4113.885858824502
aF3598.0376411637912
aF0.0
aF0.0
aF0.0
aF3005.3245799998726
aF3569.0322958706247
aF551.292080954632
aF0.0
aF0.0
aa(lp289
F2973.546712805538
aF0.0
aF4220.361516660302
aF5840.675805374526
aF0.0
aF8256.628887345234
aF3878.8224343146867
aF0.0
aF9010.085887277786
aF6896.495317111121
aF8190.068613184923
aF0.0
aF7405.547965741685
aF0.0
aa(lp290
F1839.130691647852
aF4220.361516660302
aF0.0
aF0.0
aF5838.84742343087
aF5106.702891489411
aF0.0
aF0.0
aF5572.714031467589
aF0.0
aF5065.5355398801175
aF782.4500865854267
aF0.0
aF2451.3610836861835
aa(lp291
F0.0
aF5840.675805374526
aF3612.44236970284
aF0.0
aF0.0
aF7067.308311341303
aF3320.1000556370377
aF7040.761189778951
aF7712.234102546839
aF0.0
aF7010.335667275963
aF1082.8544596457018
aF0.0
aF0.0
aa(lp292
F4113.885858824502
aF9440.37617411496
aF5838.84742343087
aF8080.543513317941
aF13060.709582071091
aF0.0
aF0.0
aF11380.093057460897
aF12465.405288183327
aF0.0
aF0.0
aF1750.2346956950985
aF10245.535717300718
aF5483.362189999411
aa(lp293
F0.0
aF0.0
aF0.0
aF0.0
aF0.0
aF9990.649011112833
aF4693.43530469955
aF9953.120865728375
aF10902.34366688566
aF8344.866295933783
aF0.0
aF1530.7693339312127
aF8960.827896005232
aF4795.792648799848
aa(lp294
F1690.2962834438536
aF0.0
aF2399.0413050110697
aF3320.1000556370377
aF5366.329942859037
aF0.0
aF2204.895291076439
aF4675.805226586368
aF5121.733794592497
aF0.0
aF4655.599482731909
aF719.1291403824324
aF4209.643033166964
aF2252.9810132313505
aa(lp295
F3584.5222349528285
aF8225.614288701527
aF0.0
aF7040.761189778951
aF11380.093057460897
aF9953.120865728375
aF4675.805226586368
aF0.0
aF10861.390898180935
aF8313.520248723105
aF0.0
aF1525.0192636354852
aF0.0
aF4777.7780830236225
aa(lp296
F3926.3758387192984
aF9010.085887277786
aF5572.714031467589
aF0.0
aF12465.405288183327
aF10902.34366688566
aF5121.733794592497
aF10861.390898180935
aF11897.234834160412
aF9106.375382748776
aF10814.455135941747
aF1670.4593800346906
aF9778.546434110303
aF5233.431737435834
aa(lp297
F0.0
aF6896.495317111121
aF0.0
aF5903.094269920267
aF9541.264120160555
aF0.0
aF0.0
aF8313.520248723105
aF9106.375382748776
aF6970.1971733320825
aF8277.594701670925
aF1278.602161617598
aF7484.689994600071
aF0.0
aa(lp298
F3569.0322958706247
aF8190.068613184923
aF5065.5355398801175
aF0.0
aF11330.915806866387
aF9910.110047052294
aF4655.599482731909
aF0.0
aF0.0
aF8277.594701670925
aF9830.220342586874
aF0.0
aF0.0
aF4757.131679792345
aa(lp299
F0.0
aF0.0
aF782.4500865854267
aF1082.8544596457018
aF1750.2346956950985
aF0.0
aF0.0
aF0.0
aF1670.4593800346906
aF1278.602161617598
aF1518.42913698972
aF234.54479795033853
aF1372.9799269879732
aF734.8123540832737
aa(lp300
F3227.1573178033286
aF7405.547965741685
aF0.0
aF6338.820770852278
aF10245.535717300718
aF8960.827896005232
aF4209.643033166964
aF8927.168095558603
aF9778.546434110303
aF0.0
aF8888.590767559797
aF0.0
aF0.0
aF4301.449535763015
aa(lp301
F1727.1593117128652
aF3963.414196390443
aF2451.3610836861835
aF3392.5068540224293
aF5483.362189999411
aF4795.792648799848
aF2252.9810132313505
aF4777.7780830236225
aF0.0
aF4005.7706353952985
aF4757.131679792345
aF734.8123540832737
aF0.0
aF0.0
aaa(lp302
(lp303
F1286.9685297838435
aF2953.282483359597
aF1826.5973199149892
aF2527.8788867906705
aF4085.8504065483958
aF3573.5176092430943
aF0.0
aF0.0
aF0.0
aF2984.843789640543
aF3544.7099305847405
aF547.5351165282501
aF0.0
aF0.0
aa(lp304
F2953.282483359597
aF0.0
aF4191.60045037198
aF5800.872564978213
aF0.0
aF8200.361325950415
aF3852.388900430547
aF0.0
aF8948.683640943082
aF6849.496841224747
aF8134.254649058901
aF0.0
aF7355.080380179821
aF0.0
aa(lp305
F1826.5973199149892
aF4191.60045037198
aF0.0
aF0.0
aF5799.056643155348
aF5071.901555206466
aF0.0
aF0.0
aF5534.736906277674
aF0.0
aF5031.014752295163
aF777.1178185513377
aF0.0
aF2434.655463007435
aa(lp306
F0.0
aF5800.872564978213
aF3587.8241719376433
aF0.0
aF0.0
aF7019.145773127432
aF3297.474122430348
aF6992.779565811409
aF7659.676501644929
aF0.0
aF6962.561388216223
aF1075.4749854533768
aF0.0
aF0.0
aa(lp307
F4085.8504065483958
aF9376.041570584293
aF5799.056643155348
aF8025.475944647634
aF12971.703004653586
aF0.0
aF0.0
aF11302.5396039236
aF12380.455611149982
aF0.0
aF0.0
aF1738.3071354838958
aF10175.714084542147
aF5445.993982843012
aa(lp308
F0.0
aF0.0
aF0.0
aF0.0
aF0.0
aF9922.564389134912
aF4661.45031872488
aF9885.291991859429
aF10828.045996493312
aF8287.997411181355
aF0.0
aF1520.337393892065
aF8899.761334740784
aF4763.110114440486
aa(lp309
F1678.777193606852
aF0.0
aF2382.69223497774
aF3297.474122430348
aF5329.759291126406
aF0.0
aF2189.8692940439287
aF4643.940386680531
aF5086.830025188879
aF0.0
aF4623.872341631283
aF714.2283941324356
aF4180.955011572336
aF2237.6273199488955
aa(lp310
F3560.0943082919325
aF8169.55808667106
aF0.0
aF6992.779565811409
aF11302.5396039236
aF9885.291991859429
aF4643.940386680531
aF0.0
aF10787.372314139544
aF8256.864982102237
aF0.0
aF1514.6265093751588
aF0.0
aF4745.218314952977
aa(lp311
F3899.618236242713
aF8948.683640943082
aF5534.736906277674
aF0.0
aF12380.455611149982
aF10828.045996493312
aF5086.830025188879
aF10787.372314139544
aF11816.157144876626
aF9044.31693941503
aF10740.756411363516
aF1659.0754754162192
aF9711.907256143048
aF5197.766765010696
aa(lp312
F0.0
aF6849.496841224747
aF0.0
aF5862.865658003213
aF9476.241981950108
aF0.0
aF0.0
aF8256.864982102237
aF9044.31693941503
aF6922.69643147537
aF8221.184261716242
aF1269.8886991851718
aF7433.683069190377
aF0.0
aa(lp313
F3544.7099305847405
aF8134.254649058901
aF5031.014752295163
aF0.0
aF11253.697488164966
aF9842.574284804752
aF4623.872341631283
aF0.0
aF0.0
aF8221.184261716242
aF9763.229015472865
aF0.0
aF0.0
aF4724.71261354774
aa(lp314
F0.0
aF0.0
aF777.1178185513377
aF1075.4749854533768
aF1738.3071354838958
aF0.0
aF0.0
aF0.0
aF1659.0754754162192
aF1269.8886991851718
aF1508.0812933534146
aF232.94641391266748
aF1363.623295681211
aF729.8047293236792
aa(lp315
F3205.164773995462
aF7355.080380179821
aF0.0
aF6295.622754838581
aF10175.714084542147
aF8899.761334740784
aF4180.955011572336
aF8866.330920271652
aF9711.907256143048
aF0.0
aF8828.016490387954
aF0.0
aF0.0
aF4272.135868024936
aa(lp316
F1715.3890064301138
aF3936.404183627207
aF2434.655463007435
aF3369.387480450532
aF5445.993982843012
aF4763.110114440486
aF2237.6273199488955
aF4745.218314952977
aF0.0
aF3978.471970499977
aF4724.71261354774
aF729.8047293236792
aF0.0
aF0.0
aaa(lp317
(lp318
F1261.0783525292943
aF2893.870768770292
aF1789.851333287619
aF2477.025092822581
aF4003.6546194619186
aF3501.62851313513
aF0.0
aF0.0
aF0.0
aF2924.797150579436
aF3473.4003637267124
aF536.5202541660854
aF0.0
aF0.0
aa(lp319
F2893.870768770292
aF0.0
aF4107.277270644651
aF5684.175368844317
aF0.0
aF8035.393183088471
aF3774.889700428853
aF0.0
aF8768.661363554673
aF6711.704282028628
aF7970.6163860990855
aF0.0
aF7207.116906048644
aF0.0
aa(lp320
F1789.851333287619
aF4107.277270644651
aF0.0
aF0.0
aF5682.395978247186
aF4969.869199913385
aF0.0
aF0.0
aF5423.393609029457
aF0.0
aF4929.8049241659155
aF761.484399703604
aF0.0
aF2385.677061413104
aa(lp321
F0.0
aF5684.175368844317
aF3515.6472681362557
aF0.0
aF0.0
aF6877.940355872738
aF3231.138242767191
aF6852.104562288786
aF7505.585412585121
aF0.0
aF6822.494289204195
aF1053.8394618474513
aF0.0
aF0.0
aa(lp322
F4003.6546194619186
aF9187.422056904948
aF5682.395978247186
aF7864.026002438133
aF12710.748923561754
aF0.0
aF0.0
aF11075.164383007132
aF12131.395760153791
aF0.0
aF0.0
aF1703.3372983674556
aF9971.007415153224
aF5336.435942937643
aa(lp323
F0.0
aF0.0
aF0.0
aF0.0
aF0.0
aF9722.950377673787
aF4567.675084737354
aF9686.42779591425
aF10610.216248770805
aF8121.2662774396695
aF0.0
aF1489.7524932486933
aF8720.723236180345
aF4667.289772068546
aa(lp324
F1645.004931032043
aF0.0
aF2334.7591869824078
aF3231.138242767191
aF5222.539565408235
aF0.0
aF2145.815299812528
aF4550.517403143465
aF4984.497351181673
aF0.0
aF4530.853070563833
aF699.8601331405165
aF4096.845988050926
aF2192.612568925552
aa(lp325
F3488.4752511421275
aF8005.209618110781
aF0.0
aF6852.104562288786
aF11075.164383007132
aF9686.42779591425
aF4550.517403143465
aF0.0
aF10570.360806196302
aF8090.760145032592
aF0.0
aF1484.156495622182
aF0.0
aF4649.757905127493
aa(lp326
F3821.168915202708
aF8768.661363554673
aF5423.393609029457
aF0.0
aF12131.395760153791
aF10610.216248770805
aF4984.497351181673
aF10570.360806196302
aF11578.449387562743
aF8862.370789770559
aF10524.68268391593
aF1625.699555847762
aF9516.531072093296
aF5093.202356666901
aa(lp327
F0.0
aF6711.704282028628
aF0.0
aF5744.921335673275
aF9285.60671858365
aF0.0
aF0.0
aF8090.760145032592
aF8862.370789770559
aF6783.431302964081
aF8055.79722011244
aF1244.3421199529857
aF7284.1383306350335
aF0.0
aa(lp328
F3473.4003637267124
aF7970.6163860990855
aF4929.8049241659155
aF0.0
aF11027.3048328709
aF9644.569448651173
aF4530.853070563833
aF0.0
aF0.0
aF8055.79722011244
aF9566.82038236526
aF0.0
aF0.0
aF4629.664720603458
aa(lp329
F0.0
aF0.0
aF761.484399703604
aF1053.8394618474513
aF1703.3372983674556
aF0.0
aF0.0
aF0.0
aF1625.699555847762
aF1244.3421199529857
aF1477.7429508876921
aF228.26018903036714
aF1336.1910407219164
aF715.1231163967713
aa(lp330
F3140.68589808797
aF7207.116906048644
aF0.0
aF6168.972580200729
aF9971.007415153224
aF8720.723236180345
aF4096.845988050926
aF8687.965347368423
aF9516.531072093296
aF0.0
aF8650.421695757961
aF0.0
aF0.0
aF4186.192542823922
aa(lp331
F1680.8802174355299
aF3857.214833071157
aF2385.677061413104
aF3301.604906837194
aF5336.435942937643
aF4667.289772068546
aF2192.612568925552
aF4649.757905127493
aF0.0
aF3898.4363347134517
aF4629.664720603458
aF715.1231163967713
aF0.0
aF0.0
aaa(lp332
(lp333
F1219.8930281337186
aF2799.360379204383
aF1731.396910028782
aF2396.1283889982174
aF3872.9000046200517
aF3387.269475937306
aF0.0
aF0.0
aF0.0
aF2829.2767420368027
aF3359.963224433282
aF518.9981385351982
aF0.0
aF0.0
aa(lp334
F2799.360379204383
aF0.0
aF3973.1384628260903
aF5498.536938038126
aF0.0
aF7772.966765072698
aF3651.6062767162343
aF0.0
aF8482.287275815695
aF6492.507974719006
aF7710.3055015011705
aF0.0
aF6971.741009588985
aF0.0
aa(lp335
F1731.396910028782
aF3973.1384628260903
aF0.0
aF0.0
aF5496.815660229009
aF4807.559162006951
aF0.0
aF0.0
aF5246.272001426902
aF0.0
aF4768.803338022232
aF736.6152217012526
aF0.0
aF2307.7636760312075
aa(lp336
F0.0
aF5498.536938038126
aF3400.830395014768
aF0.0
aF0.0
aF6653.31497541014
aF3125.613097221387
aF6628.322948224713
aF7260.461888439275
aF0.0
aF6599.679711565721
aF1019.4223140072754
aF0.0
aF0.0
aa(lp337
F3872.9000046200517
aF8887.371741225688
aF5496.815660229009
aF7607.19623344237
aF12295.63092817499
aF0.0
aF0.0
aF10713.462640261629
aF11735.198752449276
aF0.0
aF0.0
aF1647.7083209548744
aF9645.366130359038
aF5162.154269649629
aa(lp338
F0.0
aF0.0
aF0.0
aF0.0
aF0.0
aF9405.410341732779
aF4418.50022996232
aF9370.08054420787
aF10263.69916104474
aF7856.035345936996
aF0.0
aF1441.0989424360052
aF8435.914750866363
aF4514.861619666072
aa(lp339
F1591.2810196025964
aF0.0
aF2258.508719032846
aF3125.613097221387
aF5051.977612823238
aF0.0
aF2075.735515286439
aF4401.902897914439
aF4821.70957519173
aF0.0
aF4382.88077913119
aF677.0035306486001
aF3963.047853558985
aF2121.004441053166
aa(lp340
F3374.5457838920834
aF7743.768959554383
aF0.0
aF6628.322948224713
aF10713.462640261629
aF9370.08054420787
aF4401.902897914439
aF0.0
aF10225.145349989063
aF7826.52550765924
aF0.0
aF1435.6857034597415
aF0.0
aF4497.902322720992
aa(lp341
F3696.3740671845253
aF8482.287275815695
aF5246.272001426902
aF0.0
aF11735.198752449276
aF10263.69916104474
aF4821.70957519173
aF10225.145349989063
aF11200.310953049056
aF8572.936263233401
aF10180.959021045817
aF1572.6061350915936
aF9205.73244602963
aF4926.864404032222
aa(lp342
F0.0
aF6492.507974719006
aF0.0
aF5557.299013585028
aF8982.349808219928
aF0.0
aF0.0
aF7826.52550765924
aF8572.936263233401
aF6561.89247615975
aF7792.70443042981
aF1203.7033810779947
aF7046.24700573222
aF0.0
aa(lp343
F3359.963224433282
aF7710.3055015011705
aF4768.803338022232
aF0.0
aF10667.166126310922
aF9329.589240956957
aF4382.88077913119
aF0.0
aF0.0
aF7792.70443042981
aF9254.379367029724
aF0.0
aF0.0
aF4478.465357789579
aa(lp344
F0.0
aF0.0
aF736.6152217012526
aF1019.4223140072754
aF1647.7083209548744
aF0.0
aF0.0
aF0.0
aF1572.6061350915936
aF1203.7033810779947
aF1429.4816174951097
aF220.80548178481342
aF1292.5526249516197
aF691.7680429610056
aa(lp345
F3038.114818917568
aF6971.741009588985
aF0.0
aF5967.501247040978
aF9645.366130359038
aF8435.914750866363
aF3963.047853558985
aF8404.226695879219
aF9205.73244602963
aF0.0
aF8367.909175434572
aF0.0
aF0.0
aF4049.4764557443623
aa(lp346
F1625.9846616706236
aF3731.242768096097
aF2307.7636760312075
aF3193.7784035581635
aF5162.154269649629
aF4514.861619666072
aF2121.004441053166
aF4497.902322720992
aF0.0
aF3771.118024349431
aF4478.465357789579
aF691.7680429610056
aF0.0
aF0.0
aaa(lp347
(lp348
F1166.219268392709
aF2676.1920415249847
aF1655.217622483067
aF2290.7017519950873
aF3702.4972729420524
aF3238.2338770474125
aF0.0
aF0.0
aF0.0
aF2704.7921219998857
aF3212.1290662835627
aF496.1628728591688
aF0.0
aF0.0
aa(lp349
F2676.1920415249847
aF0.0
aF3798.3253649942726
aF5256.608224837074
aF0.0
aF7430.965998610712
aF3490.9401908832183
aF0.0
aF8109.077298550008
aF6206.84578540001
aF7371.061751866431
aF0.0
aF6664.993169167517
aF0.0
aa(lp350
F1655.217622483067
aF3798.3253649942726
aF0.0
aF0.0
aF5254.962681087783
aF4596.0326023404705
aF0.0
aF0.0
aF5015.44262832083
aF0.0
aF4558.981985892106
aF704.2050779268841
aF0.0
aF2206.224975317565
aa(lp351
F0.0
aF5256.608224837074
aF3251.1981327325566
aF0.0
aF0.0
aF6360.577480207174
aF2988.090050073334
aF6336.685070801057
aF6941.010692292156
aF0.0
aF6309.302100548368
aF974.5690136811317
aF0.0
aF0.0
aa(lp352
F3702.4972729420524
aF8496.338556703464
aF5254.962681087783
aF7272.489161986147
aF11754.638623863983
aF0.0
aF0.0
aF10242.083751714808
aF11218.864759364995
aF0.0
aF0.0
aF1575.2112261255888
aF9220.982145570648
aF4935.025970999471
aa(lp353
F0.0
aF0.0
aF0.0
aF0.0
aF0.0
aF8991.584110001551
aF4224.091774229596
aF8957.808779155539
aF9812.109300197095
aF7510.379666340406
aF0.0
aF1377.6924005380915
aF8064.74510640471
aF4316.213383919864
aa(lp354
F1521.2666550994684
aF0.0
aF2159.137174509963
aF2988.090050073334
aF4829.696948573133
aF0.0
aF1984.4057619687956
aF4208.224703927732
aF4609.560415133248
aF0.0
aF4190.039534458719
aF647.2162263441892
aF3788.6787298502686
aF2027.6829119082158
aa(lp355
F3226.0700114575457
aF7403.052859831376
aF0.0
aF6336.685070801057
aF10242.083751714808
aF8957.808779155539
aF4208.224703927732
aF0.0
aF9775.251808362842
aF7482.168223850796
aF0.0
aF1372.5173372719369
aF0.0
aF4300.000274721261
aa(lp356
F3533.738254847369
aF8109.077298550008
aF5015.44262832083
aF0.0
aF11218.864759364995
aF9812.109300197095
aF4609.560415133248
aF9775.251808362842
aF10707.511350744371
aF8195.737844473899
aF9733.009622347574
aF1503.4134420312218
aF8800.691790699275
aF4710.088563692251
aa(lp357
F0.0
aF6206.84578540001
aF0.0
aF5312.784842928241
aF8587.137708144499
aF0.0
aF0.0
aF7482.168223850796
aF8195.737844473899
aF6273.177455998875
aF7449.835231503834
aF1150.7419454558383
aF6736.2209951400655
aF0.0
aa(lp358
F3212.1290662835627
aF7371.061751866431
aF4558.981985892106
aF0.0
aF10197.82422617975
aF8919.099042347065
aF4190.039534458719
aF0.0
aF0.0
aF7449.835231503834
aF8847.198308328187
aF0.0
aF0.0
aF4281.418511813111
aa(lp359
F0.0
aF0.0
aF704.2050779268841
aF974.5690136811317
aF1575.2112261255888
aF0.0
aF0.0
aF0.0
aF1503.4134420312218
aF1150.7419454558383
aF1366.5862232907482
aF211.0903181553047
aF1235.6819342891758
aF661.3311186749463
aa(lp360
F2904.441586022996
aF6664.993169167517
aF0.0
aF5704.938693767051
aF9220.982145570648
aF8064.74510640471
aF3788.6787298502686
aF8034.4512860027435
aF8800.691790699275
aF0.0
aF7999.731690803818
aF0.0
aF0.0
aF3871.3045821867136
aa(lp361
F1554.443380541579
aF3567.072776751399
aF2206.224975317565
aF3053.2561686201866
aF4935.025970999471
aF4316.213383919864
aF2027.6829119082158
aF4300.000274721261
aF0.0
aF3605.1935718557693
aF4281.418511813111
aF661.3311186749463
aF0.0
aF0.0
aaa(lp362
(lp363
F1103.7148513325328
aF2532.7594743996447
aF1566.504963204489
aF2167.9298328991977
aF3504.059088987947
aF3064.6782462368215
aF0.0
aF0.0
aF0.0
aF2559.826711603639
aF3039.9725428479587
aF469.57064275675754
aF0.0
aF0.0
aa(lp364
F2532.7594743996447
aF0.0
aF3594.751200874132
aF4974.876271239708
aF0.0
aF7032.697670753905
aF3303.840571166062
aF0.0
aF7674.465074949617
aF5874.185120194639
aF6976.00403810567
aF0.0
aF6307.777743184185
aF0.0
aa(lp365
F1566.504963204489
aF3594.751200874132
aF0.0
aF0.0
aF4973.318921671034
aF4349.704706391044
aF0.0
aF0.0
aF4746.636130024844
aF0.0
aF4314.639846177026
aF666.4626661184265
aF0.0
aF2087.980653925175
aa(lp366
F0.0
aF4974.876271239708
aF3076.947672685148
aF0.0
aF0.0
aF6019.677446790337
aF2827.9410697185917
aF5997.065569409858
aF6569.0018952431265
aF0.0
aF5971.150210471273
aF922.3362391626629
aF0.0
aF0.0
aa(lp367
F3504.059088987947
aF8040.9707686505735
aF4973.318921671034
aF6882.714521859618
aF11124.63974213547
aF0.0
aF0.0
aF9693.151409630691
aF10617.581089247367
aF0.0
aF0.0
aF1490.7865710851004
aF8726.776528023685
aF4670.5294651929125
aa(lp368
F0.0
aF0.0
aF0.0
aF0.0
aF0.0
aF8509.6732562924
aF3997.6983325222004
aF8477.70814023426
aF9286.221768957103
aF7107.855101991387
aF0.0
aF1303.85391860103
aF7632.508900678608
aF4084.8826138142927
aa(lp369
F1439.7332007593388
aF0.0
aF2043.4165599537503
aF2827.9410697185917
aF4570.845632590399
aF0.0
aF1878.0500116186413
aF3982.6816700351874
aF4362.507485671146
aF0.0
aF3965.4711486856204
aF612.5281757897816
aF3585.621584546923
aF1919.0076894808103
aa(lp370
F3053.166312362112
aF7006.280558077899
aF0.0
aF5997.065569409858
aF9693.151409630691
aF8477.70814023426
aF3982.6816700351874
aF0.0
aF9251.339682695228
aF7081.155673421483
aF0.0
aF1298.9562168238056
aF0.0
aF4069.538458650884
aa(lp371
F3344.344840033627
aF7674.465074949617
aF4746.636130024844
aF0.0
aF10617.581089247367
aF9286.221768957103
aF4362.507485671146
aF9251.339682695228
aF10133.6340591559
aF7756.48098238065
aF9211.3614990711
aF1422.8368443523784
aF8329.011957401663
aF4457.647750927143
aa(lp372
F0.0
aF5874.185120194639
aF0.0
aF5028.0420603544
aF8126.903469858624
aF0.0
aF0.0
aF7081.155673421483
aF7756.48098238065
aF5936.961693981287
aF7050.555592623173
aF1089.0670474012556
aF6375.188059138215
aF0.0
aa(lp373
F3039.9725428479587
aF6976.00403810567
aF4314.639846177026
aF0.0
aF9651.264007347154
aF8441.07308148963
aF3965.4711486856204
aF0.0
aF0.0
aF7050.555592623173
aF8373.025922512643
aF0.0
aF0.0
aF4051.952599592037
aa(lp374
F0.0
aF0.0
aF666.4626661184265
aF922.3362391626629
aF1490.7865710851004
aF0.0
aF0.0
aF0.0
aF1422.8368443523784
aF1089.0670474012556
aF1293.3429854500812
aF199.7767704881249
aF1169.4546123199698
aF625.8865696292927
aa(lp375
F2748.7758093205575
aF6307.777743184185
aF0.0
aF5399.178124479426
aF8726.776528023685
aF7632.508900678608
aF3585.621584546923
aF7603.8387008393165
aF8329.011957401663
aF0.0
aF7570.9799290012215
aF0.0
aF0.0
aF3663.819040890985
aa(lp376
F1471.1317941297827
aF3375.892772643465
aF2087.980653925175
aF2889.6145601103126
aF4670.5294651929125
aF4084.8826138142927
aF1919.0076894808103
aF4069.538458650884
aF0.0
aF3411.970454466785
aF4051.952599592037
aF625.8865696292927
aF0.0
aF0.0
aaaa.